((dp0
S'arm_dbg_args'
p1
S'-via:"c:\\Users\\blogs_000\\Documents\\Visual Studio 2012\\Projects\\SDL\\SDL\\Blaster\\build_blaster_vc11\\Blaster_vc11_arm_debug.via" -qemu'
p2
sS'game-icf'
p3
S''
p4
sS'dist'
p5
NsS'csproj'
p6
g4
sS'module_path_append'
p7
NsS'global_path'
p8
S'c:\\users\\blogs_000\\documents\\visual studio 2012\\projects\\sdl\\sdl'
p9
sS'system_path'
p10
S'c:\\marmalade\\7.5\\s3e\\makefile_builder'
p11
sS'android_x86_dbg_args'
p12
S'../../tools/DeployTool/DeployTool.exe --dir "c:\\Users\\blogs_000\\Documents\\Visual Studio 2012\\Projects\\SDL\\SDL\\Blaster\\build_blaster_vc11"'
p13
sS'aarch64-arch-mod'
p14
g4
sS'no-emit'
p15
NsS'arm-float-abi'
p16
g4
sS'arm_rel_rtsm_args'
p17
S'-via:"c:\\Users\\blogs_000\\Documents\\Visual Studio 2012\\Projects\\SDL\\SDL\\Blaster\\build_blaster_vc11\\Blaster_vc11_arm_release.via" -qemu'
p18
sS'amd64'
p19
NsS'line-width'
p20
I80
sS'gcc_dbg_args'
p21
S'-via:"c:\\Users\\blogs_000\\Documents\\Visual Studio 2012\\Projects\\SDL\\SDL\\Blaster\\build_blaster_vc11\\Blaster_vc11_gcc_debug.via" -qemu'
p22
sS'android-x86'
p23
NsS'x86_dbg_exe'
p24
S'c:/marmalade/7.5/s3e\\win32\\s3e_simulator_debug.exe'
p25
sS'disable-runtime-checks'
p26
NsS'release'
p27
NsS'no-make'
p28
NsS'xcode-x86-build-settings'
p29
g4
sS'optimise-size'
p30
NsS'fat'
p31
NsS'output-name-debug'
p32
g4
sS'arm-fpu'
p33
g4
sS'proj_name'
p34
S'Blaster_vc11'
p35
sS'rvct-version'
p36
S'none'
p37
sS'compiler'
p38
g4
sS'execute'
p39
NsS'compile-static'
p40
NsS'msvc-project'
p41
NsS'buildenv'
p42
S'VC11'
p43
sS'quick'
p44
NsS'module_path'
p45
NsS'mkf_default'
p46
S's3e-default.mkf'
p47
sS'use-release-std-libs'
p48
NsS'using_perforce'
p49
I00
sS'tizen-x86'
p50
NsS'mips-s3e'
p51
NsS's3e-api-lib-name'
p52
g4
sS'ios-no-pic'
p53
NsS'shared-arm-lib'
p54
NsS'arm-cpu'
p55
g4
sS'compile-thumb'
p56
NsS'no-ide'
p57
NsS'msvc-version'
p58
S'6.0'
p59
sS'arm'
p60
NsS'builddir'
p61
g4
sS'compile-debug-as-release'
p62
I0
sS'arm-arch'
p63
g4
sS'brief'
p64
NsS'dll'
p65
NsS'buildenv-toolset'
p66
g4
sS'version'
p67
NsS'aarch64-arch'
p68
g4
sS'ccache'
p69
I0
sS'offline'
p70
NsS'ios-version'
p71
g4
sS'hub_data'
p72
g4
sS'fake_vc_call'
p73
I01
sS'jobs'
p74
I0
sS'linkflags'
p75
NsS'gcc_aarch64_dbg_args'
p76
g13
sS'debug'
p77
NsS'xcode-build-order'
p78
g4
sS'gcc_aarch64_rel_rtsm_args'
p79
S'-via:"c:\\Users\\blogs_000\\Documents\\Visual Studio 2012\\Projects\\SDL\\SDL\\Blaster\\build_blaster_vc11\\Blaster_vc11_gcc_aarch64_release.via" -qemu'
p80
sS'gcc_rel_rtsm_args'
p81
S'-via:"c:\\Users\\blogs_000\\Documents\\Visual Studio 2012\\Projects\\SDL\\SDL\\Blaster\\build_blaster_vc11\\Blaster_vc11_gcc_release.via" -qemu'
p82
sS'done_defaults'
p83
I1
sS'path'
p84
NsS's3e-data-dir'
p85
S'c:/Users/blogs_000/Documents/Visual Studio 2012/Projects/SDL/SDL/Blaster\\data'
p86
sS'enable-exceptions'
p87
NsS'osx-dll'
p88
NsS'extension'
p89
g4
sS'no-vc6'
p90
NsS'aarch64'
p91
NsS'win32-console'
p92
NsS'dist-format'
p93
g4
sS's3e-force-arch'
p94
NsS'dump_defines'
p95
NsS'use-shared-std-libs'
p96
NsS'gcc-version'
p97
g4
sS'x86_dbg_args'
p98
S'-via:"c:\\Users\\blogs_000\\Documents\\Visual Studio 2012\\Projects\\SDL\\SDL\\Blaster\\build_blaster_vc11\\Blaster_vc11_debug.via"'
p99
sS'tizen_x86_dbg_args'
p100
g13
sS'arm-debugger'
p101
g4
sS'use_temp_extension'
p102
NsS'verbose'
p103
I0
sS'log'
p104
NsS'no-strip'
p105
NsS'rebuild'
p106
NsS'mips_dbg_args'
p107
g13
sS'win32-simulator-dll'
p108
NsS'strict'
p109
NsS'xcode-aarch64-build-settings'
p110
g4
sS'enable-global-path'
p111
NsS'gcc_aarch64_rel_args'
p112
g13
sS'cflags'
p113
NsS'dist-dir'
p114
g4
sS'xcode-arm-build-settings'
p115
g4
sS'jflags'
p116
NsS'csprojSDKRefs'
p117
g4
sS'tizen_x86_rel_exe'
p118
S'c:\\marmalade\\7.5\\s3e\\makefile_builder\\tool_launcher.exe'
p119
sS'test-assets'
p120
g4
sS'distcc'
p121
NsS'external-compiler'
p122
NsS'no-distcc'
p123
NsS'preinclude'
p124
NsS'using_sdk'
p125
I01
sS'nologo'
p126
NsS'warn-level'
p127
I2
sS'mips_dbg_exe'
p128
g119
sS'mkb_in'
p129
S'c:/Users/blogs_000/Documents/Visual Studio 2012/Projects/SDL/SDL/Blaster/Blaster.mkb'
p130
sS'tizen_x86_dbg_exe'
p131
g119
sS'arm_dbg_exe'
p132
S'c:/marmalade/7.5/s3e\\bin\\armdebug.exe'
p133
sS'csprojDLLRef'
p134
NsS'tizen_x86_rel_args'
p135
g13
sS'android_x86_dbg_exe'
p136
g119
sS'test-config'
p137
g4
sS'list-targets'
p138
NsS'arm_rel_exe'
p139
g119
sS'arm_rel_args'
p140
g13
sS'makedeps'
p141
NsS'android_x86_rel_exe'
p142
g119
sS'default-buildenv'
p143
S'VC11'
p144
sS'x86_rel_exe'
p145
g25
sS'preprocess-java'
p146
NsS'mips_rel_args'
p147
g13
sS'defines'
p148
NsS'lib'
p149
NsS'non-interactive'
p150
NsS'global_argv'
p151
(lp152
S'C:\\Marmalade\\7.5\\s3e\\makefile_builder\\mkb.py'
p153
aS'C:/Users/blogs_000/Documents/Visual Studio 2012/Projects/SDL/SDL/Blaster/Blaster.mkb'
p154
aS'--buildenv=VC11'
p155
aS'--fake-vc-call'
p156
asS'make'
p157
NsS'optimise-speed'
p158
NsS'internal'
p159
NsS'enable-stdinc'
p160
NsS'deploy-only'
p161
NsS'x86'
p162
NsS'deploy'
p163
g4
sS'x86_run_exe'
p164
S'c:/marmalade/7.5/s3e\\win32\\s3e_console.exe'
p165
sS'cxxflags'
p166
NsS'x86_rel_args'
p167
S'-via:"c:\\Users\\blogs_000\\Documents\\Visual Studio 2012\\Projects\\SDL\\SDL\\Blaster\\build_blaster_vc11\\Blaster_vc11_release.via"'
p168
sS'gcc_rel_args'
p169
g13
sS'mips'
p170
NsS'xcode-build-settings'
p171
g4
sS'incredibuild'
p172
NsS'strict-compile'
p173
NsS'use-auto-subdirs'
p174
NsS'mips_rel_exe'
p175
g119
sS'android_x86_rel_args'
p176
g13
sS'app-icf'
p177
g4
sS'deployargs'
p178
NsS'iosnativedebug'
p179
NsS'use_prebuilt'
p180
NsS'mkf_in'
p181
(lp182
S'c:\\marmalade\\7.5\\s3e\\s3e-default.mkf'
p183
aS'c:\\marmalade\\7.5\\modules\\iwutil\\iwutil.mkf'
p184
aS'c:\\marmalade\\7.5\\modules\\third_party\\libjpeg\\libjpeg.mkf'
p185
aS'c:\\marmalade\\7.5\\modules\\third_party\\libpng\\libpng.mkf'
p186
aS'c:\\marmalade\\7.5\\modules\\third_party\\zlib\\zlib.mkf'
p187
asS'strict-mkb'
p188
NsS'executeargs'
p189
NsS'clean'
p190
NsS'no-asm'
p191
NsS'output-name'
p192
g4
sS'no-modules'
p193
NsS'find_define'
p194
g4
s(dp195
S'c:\\marmalade\\7.5\\s3e\\makefile_builder\\templates\\vc7_suo.pyc'
p196
F1422012890.0
sS'c:\\marmalade\\7.5\\s3e\\makefile_builder\\templates\\ws81_vcxproj.pyc'
p197
F1422012892.0
sS'c:\\marmalade\\7.5\\s3e\\makefile_builder\\plugins\\s3e_ws8.pyc'
p198
F1422012890.0
sS'c:\\marmalade\\7.5\\s3e\\makefile_builder\\templates'
p199
F1423776446.9868693
sS'c:\\marmalade\\7.5\\s3e\\makefile_builder\\templates\\qmake.py'
p200
F1422011718.0
sS'c:\\marmalade\\7.5\\s3e\\makefile_builder\\templates\\vc10_user.pyc'
p201
F1422012890.0
sS'c:\\marmalade\\7.5\\s3e\\makefile_builder\\plugins'
p202
F1423777191.573594
sS'c:\\marmalade\\7.5\\s3e\\makefile_builder\\mkb_main.pyc'
p203
F1422012890.0
sS'c:\\marmalade\\7.5\\s3e\\makefile_builder\\templates\\mips_linker_script'
p204
F1422011718.0
sS'c:\\marmalade\\7.5\\s3e\\makefile_builder\\plugins\\XcodeEmitter.py'
p205
F1422011718.0
sS'c:\\marmalade\\7.5\\s3e\\makefile_builder\\mkb.py'
p206
F1422011718.0
sS'c:\\marmalade\\7.5\\s3e\\makefile_builder\\templates\\ws81_ext_sln.pyc'
p207
F1422012892.0
sS'c:\\marmalade\\7.5\\s3e\\makefile_builder\\templates\\win32_dsp.pyc'
p208
F1422012890.0
sS'c:\\marmalade\\7.5\\s3e\\makefile_builder\\templates\\ws8_csproj.pyc'
p209
F1422012892.0
sS'c:\\marmalade\\7.5\\s3e\\makefile_builder\\deployment.pyc'
p210
F1422012890.0
sS'c:\\marmalade\\7.5\\s3e\\makefile_builder\\plugins\\win32_vc6.pyc'
p211
F1422012890.0
sS'c:\\marmalade\\7.5\\s3e\\makefile_builder\\plugins\\osx_xcode.pyc'
p212
F1422012890.0
sS'c:\\marmalade\\7.5\\s3e\\makefile_builder\\plugins\\null.pyc'
p213
F1422012890.0
sS'c:\\marmalade\\7.5\\s3e\\makefile_builder\\templates\\wp81_csproj.pyc'
p214
F1422012892.0
sS'c:\\marmalade\\7.5\\s3e\\makefile_builder\\templates\\qmake_user.py'
p215
F1422011718.0
sS'c:\\marmalade\\7.5\\s3e\\makefile_builder\\templates\\vc6_opt.pyc'
p216
F1422012890.0
sS'c:\\marmalade\\7.5\\s3e\\makefile_builder\\plugins\\vc7_utils.pyc'
p217
F1422012890.0
sS'c:\\marmalade\\7.5\\s3e\\makefile_builder\\templates\\wp81_vcxproj.pyc'
p218
F1422012892.0
sS'c:\\marmalade\\7.5\\s3e\\makefile_builder\\templates\\win32_vcxproj.pyc'
p219
F1422012890.0
sS'c:\\marmalade\\7.5\\s3e\\makefile_builder\\templates\\ws8_ext_sln.pyc'
p220
F1422012892.0
sS'c:\\marmalade\\7.5\\s3e\\makefile_builder\\templates\\ws8_ext_csproj.pyc'
p221
F1422012892.0
sS'c:\\marmalade\\7.5\\s3e\\makefile_builder\\templates\\wp8_ext_csproj.pyc'
p222
F1422012892.0
sS'c:\\marmalade\\7.5\\s3e\\makefile_builder\\plugins\\s3e_wp8.pyc'
p223
F1422012890.0
sS'c:\\marmalade\\7.5\\s3e\\makefile_builder\\templates\\ws81_csproj.pyc'
p224
F1422012892.0
sS'c:\\marmalade\\7.5\\s3e\\makefile_builder\\docs\\deprecated.options.txt'
p225
F1422011718.0
sS'c:\\marmalade\\7.5\\s3e\\makefile_builder\\plugins\\s3e_make.pyc'
p226
F1422012890.0
sS'c:\\marmalade\\7.5\\s3e\\makefile_builder\\templates\\win8_ext_csproj.pyc'
p227
F1422012892.0
sS'c:\\marmalade\\7.5\\s3e\\makefile_builder\\mkb_parser.pyc'
p228
F1422012890.0
sS'c:\\marmalade\\7.5\\s3e\\makefile_builder\\plugins\\s3e_web.pyc'
p229
F1422012890.0
sS'c:\\marmalade\\7.5\\s3e\\makefile_builder\\docs\\mkb.defines.txt'
p230
F1422011718.0
sS'c:\\marmalade\\7.5\\s3e\\makefile_builder\\plugins\\osx_scons.pyc'
p231
F1422012890.0
sS'c:\\marmalade\\7.5\\s3e\\makefile_builder\\plugins\\ws81_ws81.pyc'
p232
F1422012890.0
sS'c:\\marmalade\\7.5\\s3e\\makefile_builder\\plugins\\s3e_qmake.py'
p233
F1422011718.0
sS'c:\\marmalade\\7.5\\s3e\\makefile_builder\\templates\\win8_csproj.pyc'
p234
F1422012892.0
sS'c:\\marmalade\\7.5\\s3e\\makefile_builder\\plugins\\s3e_vc6.pyc'
p235
F1422012890.0
sS'c:\\marmalade\\7.5\\s3e\\makefile_builder\\plugins\\wp81_wp81.pyc'
p236
F1422012890.0
sS'c:\\marmalade\\7.5\\s3e\\makefile_builder\\templates\\wp81_csproj_user.pyc'
p237
F1422012892.0
sS'c:\\marmalade\\7.5\\s3e\\makefile_builder\\templates\\win32_dsw.pyc'
p238
F1422012890.0
sS'c:\\marmalade\\7.5\\s3e\\makefile_builder\\templates\\xcode4.xcscheme'
p239
F1422011718.0
sS'c:\\marmalade\\7.5\\s3e\\makefile_builder\\templates\\template.opt'
p240
F1422011718.0
sS'c:\\marmalade\\7.5\\s3e\\makefile_builder\\templates\\template.suo'
p241
F1422011718.0
sS'c:\\marmalade\\7.5\\s3e\\makefile_builder\\templates\\linker_script'
p242
F1422011718.0
sS'c:\\marmalade\\7.5\\s3e\\makefile_builder\\templates\\gdb_start.txt'
p243
F1422011718.0
sS'c:\\marmalade\\7.5\\s3e\\makefile_builder\\mkb_launcher.exe'
p244
F1422012030.0
sS'c:\\marmalade\\7.5\\s3e\\makefile_builder\\templates\\scons.pyc'
p245
F1422012890.0
sS'c:\\marmalade\\7.5\\s3e\\makefile_builder\\docs\\parse_options.pyc'
p246
F1422012892.0
sS'c:\\marmalade\\7.5\\s3e\\makefile_builder\\templates\\xcode4_arm.xcscheme'
p247
F1422011718.0
sS'c:\\marmalade\\7.5\\s3e\\makefile_builder\\plugins\\VisualStudioEmitter.pyc'
p248
F1422012890.0
sS'c:\\marmalade\\7.5\\s3e\\makefile_builder\\plugins\\s3e_xcode.pyc'
p249
F1423777191.5765886
sS'c:\\marmalade\\7.5\\s3e\\makefile_builder\\plugins\\Emitter.pyc'
p250
F1422012890.0
sS'c:\\marmalade\\7.5\\s3e\\makefile_builder\\templates\\ws8_sln.pyc'
p251
F1422012892.0
sS'c:\\marmalade\\7.5\\s3e\\makefile_builder\\tool_launcher.exe'
p252
F1422012030.0
sS'c:\\marmalade\\7.5\\s3e\\makefile_builder\\templates\\wp8_sln.pyc'
p253
F1422012892.0
sS'c:\\marmalade\\7.5\\s3e\\makefile_builder\\mkb_upstream.pyc'
p254
F1422012890.0
sS'c:\\marmalade\\7.5\\s3e\\makefile_builder\\templates\\ws81_csproj_user.pyc'
p255
F1422012892.0
sS'c:\\marmalade\\7.5\\s3e\\makefile_builder\\templates\\win32_sln.pyc'
p256
F1422012890.0
sS'c:\\marmalade\\7.5\\s3e\\makefile_builder\\templates\\xcode4_DeployTool.xcscheme'
p257
F1422011718.0
sS'c:\\marmalade\\7.5\\s3e\\makefile_builder\\plugins\\deploy.pyc'
p258
F1422012890.0
sS'c:\\marmalade\\7.5\\s3e\\makefile_builder\\plugins\\s3e_win8.pyc'
p259
F1422012890.0
sS'c:\\marmalade\\7.5\\s3e\\makefile_builder\\plugins\\iphone.pyc'
p260
F1422012890.0
sS'c:\\marmalade\\7.5\\s3e\\makefile_builder\\plugins\\Win8Emitter.pyc'
p261
F1422012890.0
sS'c:\\marmalade\\7.5\\s3e\\makefile_builder\\plugins\\s3e_qmake.pyc'
p262
F1423777190.7286658
sS'c:\\marmalade\\7.5\\s3e\\makefile_builder\\docs'
p263
F1423776447.060918
sS'c:\\marmalade\\7.5\\s3e\\makefile_builder\\mkb_globals.pyc'
p264
F1422012890.0
sS'c:\\marmalade\\7.5\\s3e\\makefile_builder\\plugins\\win8_utils.pyc'
p265
F1422012890.0
sS'c:\\marmalade\\7.5\\s3e\\makefile_builder\\plugins\\xcode4_schememanagement.py'
p266
F1422011718.0
sS'c:\\marmalade\\7.5\\s3e\\makefile_builder\\templates\\wp81_ext_sln.pyc'
p267
F1422012892.0
sS'c:\\marmalade\\7.5\\s3e\\makefile_builder\\templates\\make.py'
p268
F1422011718.0
sS'c:\\marmalade\\7.5\\s3e\\makefile_builder\\templates\\ws81_ext_csproj.pyc'
p269
F1422012892.0
sS'c:\\marmalade\\7.5\\s3e\\makefile_builder\\plugins\\s3e_xcode.py'
p270
F1422011718.0
sS'c:\\marmalade\\7.5\\s3e\\makefile_builder\\plugins\\XcodeEmitter.pyc'
p271
F1423777189.5157619
sS'c:\\marmalade\\7.5\\s3e\\makefile_builder\\docs\\deployment_options.txt'
p272
F1422011718.0
sS'c:\\marmalade\\7.5\\s3e\\makefile_builder\\templates\\win8_sln.pyc'
p273
F1422012892.0
sS'c:\\marmalade\\7.5\\s3e\\makefile_builder\\plugins\\java.pyc'
p274
F1422012890.0
sS'c:\\marmalade\\7.5\\s3e\\makefile_builder\\plugins\\xcode4_schememanagement.pyc'
p275
F1423777189.6548512
sS'c:\\marmalade\\7.5\\s3e\\makefile_builder\\plugins\\SConsEmitter.pyc'
p276
F1422012890.0
sS'c:\\marmalade\\7.5\\s3e\\makefile_builder\\templates\\win32_vcproj.pyc'
p277
F1422012890.0
sS'c:\\marmalade\\7.5\\s3e\\makefile_builder\\plugins\\wp8_wp8.pyc'
p278
F1422012890.0
sS'c:\\marmalade\\7.5\\s3e\\makefile_builder\\templates\\MainWindow.xib'
p279
F1422011718.0
sS'c:\\marmalade\\7.5\\s3e\\makefile_builder\\mkb_util.pyc'
p280
F1422012890.0
sS'c:\\marmalade\\7.5\\s3e\\makefile_builder\\templates\\vc8_user.pyc'
p281
F1422012890.0
sS'c:\\marmalade\\7.5\\s3e\\makefile_builder\\templates\\Info.plist'
p282
F1422011718.0
sS'c:\\marmalade\\7.5\\s3e\\makefile_builder\\templates\\wp8_csproj_user.pyc'
p283
F1422012892.0
sS'c:\\marmalade\\7.5\\s3e\\makefile_builder\\docs\\deprecated.defines.txt'
p284
F1422011718.0
sS'c:\\marmalade\\7.5\\s3e\\makefile_builder\\templates\\ws8_csproj_user.pyc'
p285
F1422012892.0
sS'c:\\marmalade\\7.5\\s3e\\makefile_builder\\plugins\\S3EEmitter.pyc'
p286
F1422012890.0
sS'c:\\marmalade\\7.5\\s3e\\makefile_builder\\templates\\rvct_linker_script'
p287
F1422011718.0
sS'c:\\marmalade\\7.5\\s3e\\makefile_builder\\templates\\xcode_pbxuser.py'
p288
F1422011718.0
sS'c:\\marmalade\\7.5\\s3e\\makefile_builder\\docs\\options.txt'
p289
F1422011718.0
sS'c:\\marmalade\\7.5\\s3e\\makefile_builder\\templates\\wp81_sln.pyc'
p290
F1422012892.0
sS'c:\\marmalade\\7.5\\s3e\\makefile_builder\\templates\\ws81_sln.pyc'
p291
F1422012892.0
sS'c:\\marmalade\\7.5\\s3e\\makefile_builder\\plugins\\vc6_utils.pyc'
p292
F1422012890.0
sS'c:\\marmalade\\7.5\\s3e\\makefile_builder\\templates\\wp81_ext_csproj.pyc'
p293
F1422012892.0
sS'c:\\marmalade\\7.5\\s3e\\makefile_builder\\plugins\\s3e_wp81.pyc'
p294
F1422012890.0
sS'c:\\marmalade\\7.5\\s3e\\makefile_builder\\templates\\aarch64_linker_script'
p295
F1422011718.0
sS'c:\\marmalade\\7.5\\s3e\\makefile_builder\\templates\\ws8_vcxproj.pyc'
p296
F1422012892.0
sS'c:\\marmalade\\7.5\\s3e\\makefile_builder\\plugins\\MakeEmitter.pyc'
p297
F1422012890.0
sS'c:\\marmalade\\7.5\\s3e\\makefile_builder\\templates\\win32_vcxproj_filters.pyc'
p298
F1422012890.0
sS'c:\\marmalade\\7.5\\s3e\\makefile_builder\\templates\\xcode.py'
p299
F1422011718.0
sS'c:\\marmalade\\7.5\\s3e\\makefile_builder\\plugins\\s3e_ws81.pyc'
p300
F1422012890.0
sS'c:\\marmalade\\7.5\\s3e\\makefile_builder\\plugins\\linux_scons.pyc'
p301
F1422012890.0
sS'c:\\marmalade\\7.5\\s3e\\makefile_builder\\templates\\win8_vcxproj.pyc'
p302
F1422012892.0
sS'c:\\marmalade\\7.5\\s3e\\makefile_builder\\plugins\\s3e_scons.pyc'
p303
F1422012890.0
sS'c:\\marmalade\\7.5\\s3e\\makefile_builder\\templates\\wp8_csproj.pyc'
p304
F1422012892.0
sS'c:\\marmalade\\7.5\\s3e\\makefile_builder\\templates\\win8_csproj_user.pyc'
p305
F1422012892.0
sS'c:\\marmalade\\7.5\\s3e\\makefile_builder\\plugins\\ws8_ws8.pyc'
p306
F1422012890.0
sS'c:\\marmalade\\7.5\\s3e\\makefile_builder\\templates\\wp8_vcxproj.pyc'
p307
F1422012892.0
sS'c:\\marmalade\\7.5\\s3e\\makefile_builder\\mkb_option.pyc'
p308
F1422012890.0
sccopy_reg
_reconstructor
p309
(cmkb_main
MkbFile
p310
c__builtin__
object
p311
Ntp312
Rp313
(dp314
g5
(lp315
sS'target_name'
p316
S'Blaster'
p317
sS'current_file'
p318
g130
sS'package_path'
p319
(lp320
sS'post_build'
p321
(lp322
(lp323
S'c:/marmalade/7.5/s3e/tools'
p324
aS'C:\\Marmalade\\7.5\\s3e\\python\\python.exe .\\process_map.py "$(TargetPath)"'
p325
aa(S'c:\\marmalade\\7.5\\s3e\\bin'
p326
S'"s3e_plink" -l "$(TargetPath)" '
p327
g162
tp328
asS'librarys'
p329
(lp330
g309
(cmkb_main
Library
p331
g311
Ntp332
Rp333
(dp334
S'name'
p335
S'vc6_compat.lib'
p336
sS'expand_name'
p337
I00
sS'include_spec_rvct_objs'
p338
(lp339
sS'include_all_objs'
p340
I00
sS'share_arm'
p341
I00
sS'arch'
p342
S'x86'
p343
sS'nodebug'
p344
I00
sg38
Nsbag309
(g331
g311
Ntp345
Rp346
(dp347
g335
S'iwutil'
p348
sg337
I01
sg338
(lp349
sg340
Nsg341
Nsg342
Nsg344
I00
sg38
Nsbag309
(g331
g311
Ntp350
Rp351
(dp352
g335
S'jpeg'
p353
sg337
I01
sg338
g349
sg340
Nsg341
Nsg342
Nsg344
I00
sg38
Nsbag309
(g331
g311
Ntp354
Rp355
(dp356
g335
S'z'
p357
sg337
I01
sg338
g349
sg340
Nsg341
Nsg342
Nsg344
I00
sg38
Nsbag309
(g331
g311
Ntp358
Rp359
(dp360
g335
S'png'
p361
sg337
I01
sg338
g349
sg340
Nsg341
Nsg342
Nsg344
I00
sg38
Nsbag309
(g331
g311
Ntp362
Rp363
(dp364
g335
S's3e_cpp'
p365
sg337
I01
sg338
g339
sg340
I00
sg341
I00
sg342
Nsg344
I00
sg38
Nsbag309
(g331
g311
Ntp366
Rp367
(dp368
g335
S's3e'
p369
sg337
I01
sg338
(lp370
S'iwcrt.o'
p371
asg340
I00
sg341
I00
sg342
Nsg344
I00
sg38
Nsbag309
(g331
g311
Ntp372
Rp373
(dp374
g335
S's3e_api'
p375
sg337
I01
sg338
g339
sg340
I00
sg341
I00
sg342
S'x86'
p376
sg344
I01
sg38
Nsbag309
(g331
g311
Ntp377
Rp378
(dp379
g335
g375
sg337
I01
sg338
g339
sg340
I00
sg341
I00
sg342
S'!x86'
p380
sg344
I01
sg38
Nsbag309
(g331
g311
Ntp381
Rp382
(dp383
g335
S'stdc++'
p384
sg337
I00
sg338
g339
sg340
I00
sg341
I00
sg342
S'mips'
p385
sg344
I00
sg38
Nsbag309
(g331
g311
Ntp386
Rp387
(dp388
g335
S'c'
p389
sg337
I00
sg338
g339
sg340
I00
sg341
I00
sg342
S'mips'
p390
sg344
I00
sg38
Nsbag309
(g331
g311
Ntp391
Rp392
(dp393
g335
S'm'
p394
sg337
I00
sg338
g339
sg340
I00
sg341
I00
sg342
S'mips'
p395
sg344
I00
sg38
Nsbag309
(g331
g311
Ntp396
Rp397
(dp398
g335
S'gcc'
p399
sg337
I00
sg338
g339
sg340
I00
sg341
I00
sg342
S'mips'
p400
sg344
I00
sg38
Nsbag309
(g331
g311
Ntp401
Rp402
(dp403
g335
S'stdc++'
p404
sg337
I00
sg338
g339
sg340
I00
sg341
I00
sg342
S'gcc_x86_android'
p405
sg344
I00
sg38
Nsbag309
(g331
g311
Ntp406
Rp407
(dp408
g335
g389
sg337
I00
sg338
g339
sg340
I00
sg341
I00
sg342
S'gcc_x86_android'
p409
sg344
I00
sg38
Nsbag309
(g331
g311
Ntp410
Rp411
(dp412
g335
g394
sg337
I00
sg338
g339
sg340
I00
sg341
I00
sg342
S'gcc_x86_android'
p413
sg344
I00
sg38
Nsbag309
(g331
g311
Ntp414
Rp415
(dp416
g335
g399
sg337
I00
sg338
g339
sg340
I00
sg341
I00
sg342
S'gcc_x86_android'
p417
sg344
I00
sg38
NsbasS'library_paths'
p418
(lp419
g309
(cmkb_main
LibraryPath
p420
g311
Ntp421
Rp422
(dp423
S'expand_path'
p424
I01
sg335
S'c:/marmalade/7.5/modules/iwutil'
p425
sbag309
(g420
g311
Ntp426
Rp427
(dp428
g424
I01
sg335
S'c:/marmalade/7.5/modules/third_party/libjpeg'
p429
sbag309
(g420
g311
Ntp430
Rp431
(dp432
g424
I01
sg335
S'c:/marmalade/7.5/modules/third_party/zlib'
p433
sbag309
(g420
g311
Ntp434
Rp435
(dp436
g424
I01
sg335
S'c:/marmalade/7.5/modules/third_party/libpng'
p437
sbag309
(g420
g311
Ntp438
Rp439
(dp440
g424
I01
sg335
S'c:/marmalade/7.5/s3e'
p441
sbasS'macros'
p442
(dp443
S'IW_USE_CALLSTACK'
p444
NsS'IW_PLATFORM_S3E'
p445
NsS'I3D_PLATFORM_S3E'
p446
NsS'IW_MKF_IWUTIL'
p447
NsS'S3E_INCLUDE_LEGACY'
p448
NsS'IW_SDK'
p449
NsS'__S3E__'
p450
NsS'IW_USE_ASSERTIONS'
p451
NsS'_CRT_SECURE_NO_DEPRECATE'
p452
NsS'IW_APP_NAME'
p453
S'"Blaster"'
p454
sS'IW_MKF_LIBJPEG'
p455
NsS'I3D_OS_S3E'
p456
NsS'IW_MKF_LIBPNG'
p457
NsS'IW_APP_VERSION'
p458
S'"1.0"'
p459
sS'IW_DEBUG'
p460
NsS'IW_USE_TRACING'
p461
NsS'IW_MKF_ZLIB'
p462
NsS'IW_MKF_S3E_DEFAULT'
p463
NssS'done_warnings'
p464
(dp465
sS'subprojects'
p466
(dp467
g185
S'libjpeg'
p468
sg187
S'zlib'
p469
sg184
S'iwutil'
p470
sg183
S's3e-default.mkf'
p471
sg186
S'libpng'
p472
ssS'deployments'
p473
(dp474
S'Default'
p475
g309
(cdeployment
Deployment
p476
g311
Ntp477
Rp478
(dp479
S'got_version'
p480
I0
sS'assets'
p481
g475
sS'mkb'
p482
g313
sS'target'
p483
Nsg342
(lp484
sS'options'
p485
(dp486
S'iphone-link-lib'
p487
(lp488
sS'game-icf'
p489
NsS'android-tm'
p490
NsS'winmobile-icon32'
p491
NsS'ws8-logo-image150x150'
p492
NsS'wp81-logo-image150x150'
p493
NsS'ws81-product-version'
p494
NsS'osx-ext-dll'
p495
(lp496
sS'iphone-provisioning-profile'
p497
NsS'win32-icon'
p498
NsS'ws8-splash-screen-image620x300'
p499
NsS'wp81-extra-pri'
p500
(lp501
sS'ws8-ext-capabilities'
p502
(lp503
sS'android-icon-hdpi'
p504
NsS'iphone-ipad-only'
p505
NsS'iphone-splash-full-orient'
p506
NsS'wp8-tile-fliptemplate-supports-large'
p507
NsS'iphone-show-status-bar'
p508
NsS'roku-requires-mkv'
p509
NsS'long-caption'
p510
NsS'android-pkgname'
p511
NsS'wp81-publisher-display-name'
p512
NsS'blackberry-permissions-read-device-identifying-information'
p513
NsS'ws81-certificate-end-date'
p514
NsS'psp-dlgcontentid'
p515
NsS'iphone-minimum-ios-version'
p516
NsS'target-folder'
p517
NsS'tizen-dist1-CA-path'
p518
NsS'symbian-icon2-format'
p519
NsS'tizen-author-key'
p520
NsS'firefoxos-icon-128X128'
p521
NsS'iphone-region'
p522
NsS'uiq3-icon3-mask'
p523
NsS'brew-encoding'
p524
NsS'android-x86'
p525
NsS'nds-initialcode'
p526
NsS'iphone-persistent-wifi'
p527
NsS'psp-snd0'
p528
NsS'roku-icon-focus-hd'
p529
NsS'osx-appid'
p530
NsS'winmobile-install-folder'
p531
NsS'android-external-res'
p532
(lp533
sS'ws8-product-version'
p534
NsS'brew-priviledges'
p535
NsS'iphone-info-plist-override'
p536
NsS'iphone-icon-ipad'
p537
NsS'iphone-skip-icon-generation'
p538
NsS'roku-hidden'
p539
NsS'psp-titlename'
p540
NsS'wp81-product-version'
p541
NsS'symbian-icon1-mask'
p542
NsS'psp-parentallevel'
p543
NsS'iphone-launch-storyboard'
p544
NsS'splashscreen-use-all'
p545
NsS'wp8-author'
p546
NsS'symbian-disable-ecompxl'
p547
NsS'splashscreen-auto-onblack'
p548
NsS'iphone-icon-dir'
p549
NsS'iphone-icon-extra'
p550
NsS'win32-ext-dll'
p551
(lp552
sS'iphone-development-key'
p553
NsS'winmobile-icon48'
p554
NsS'android-unsigned'
p555
NsS'osx-appstore-category'
p556
NsS'version-revision'
p557
NsS'roku-icon-focus-sd'
p558
NsS'android-keystore'
p559
NsS'winmobile-png90'
p560
NsS'iphone-icon-ipad-high-res'
p561
NsS'iphone-disable-ipad'
p562
NsS'ws81-splash-screen-background'
p563
NsS'wp8-ext-capabilities'
p564
(lp565
sS'brew-icon-large'
p566
NsS'symbian-icon1-mask-black'
p567
NsS'ws8-extra-res'
p568
(lp569
sS'iphone-bundle-localisations'
p570
NsS'winmobile-png60'
p571
NsS'blackberry-permissions-access-shared'
p572
NsS'blackberry-author'
p573
NsS'android-icon-xxxhdpi'
p574
NsS'olddeploytoolstyle'
p575
NsS'android_icon_gallery'
p576
NsS'wp81-splash-screen-background'
p577
NsS'winmobile-cab-compress'
p578
NsS'iphone-info-plist'
p579
NsS'ws81-ext-managed-dll'
p580
(lp581
sS'playbook-cskpass'
p582
NsS'ws8-distribution-pfx-password'
p583
NsS'symbian-key'
p584
NsS'app-icf'
p585
NsS'blackberry-storepass'
p586
NsS'wp8-tile-fliptemplate-back-title'
p587
NsS'brew-compress-loader'
p588
NsS'win32-pref-windowposy'
p589
NsS'win32-pref-windowposx'
p590
NsS'roku-requires-audiometadata'
p591
NsS'wp8-exclude-low-mem'
p592
NsS'iphone-icon-ipad-search-high-res'
p593
NsS'iphone-link-libdir'
p594
(lp595
sS'wp81-ext-capabilities'
p596
(lp597
sS'blackberry-permissions-read-geolocation'
p598
NsS'ws81-ext-device-capabilities'
p599
(lp600
sS'tizen-signed'
p601
NsS'android-extra-application-manifest'
p602
(lp603
sS'ws8-ext-native-dll'
p604
(lp605
sS'symbian-icon2-mask'
p606
NsS'iphone-launch-extra'
p607
NsS'webos-memory'
p608
NsS'android-keypass'
p609
NsS'name'
p610
NsS'uiq3-icon2-format'
p611
NsS'roku-splash-screen-sd'
p612
NsS'auto-derbh'
p613
NsS'roku-icon-side-sd'
p614
NsS'android-external-assets'
p615
(lp616
sS'nds-publicsavedatasize'
p617
NsS'splashscreen'
p618
NsS'brew-mif'
p619
NsS'iphone-icon-settings-high-res'
p620
NsS'android-manifest'
p621
NsS'ws81-splash-screen-image620x300'
p622
NsS'wp81-product-name'
p623
NsS's3e-compression'
p624
NsS'tizen-author-password'
p625
NsS'wp8-tile-fliptemplate-back-content'
p626
NsS'blackberry-extra-descriptor'
p627
(lp628
sS'symbian-icon1'
p629
NsS'symbian-icon2'
p630
NsS'nds-makercode'
p631
NsS'android-extra-styles-file'
p632
NsS'wp81-publisher-id'
p633
NsS'nds-bannertitle-jp'
p634
NsS'wp81-logo-image44x44'
p635
NsS'osx-sign-for-store'
p636
NsS'symbian7-uid'
p637
NsS'wp8-tile-fliptemplate-large-back-content'
p638
NsS'wp81-phone-publisher-id'
p639
NsS'nds-bannertitle-cn'
p640
NsS'iphone-distribution-key'
p641
NsS'android-icon-gallery'
p642
NsS'blackberry-keystore'
p643
NsS'iphone-nosign'
p644
NsS'caption'
p645
NsS'android-extra-manifest'
p646
(lp647
sS'wp81-ext-sdk-ref'
p648
(lp649
sS'android-icon-xxhdpi'
p650
NsS'version-minor'
p651
NsS'iphone-skip-launch-generation'
p652
NsS'iphone-link-libdirs'
p653
(lp654
sS'iphone-icon-large'
p655
NsS'symbian-keypwd'
p656
NsS'symbian8-uid'
p657
NsS'symbian-cert-key'
p658
NsS'winmobile-ampd-part-number'
p659
NsS'arch'
p660
NsS'nds-romheadertemplate'
p661
NsS'webos-icon'
p662
NsS'wp81-ext-device-capabilities'
p663
(lp664
sS'psp-dlgprotectdocument'
p665
NsS'ws8-splash-screen-background'
p666
NsS'android-icon-mdpi'
p667
NsS'nds-icon'
p668
NsS'ws8-custom-manifest-fill'
p669
NsS'iphone-development-cert'
p670
NsS'and'
p671
NsS'symbian-icon2-mask-black'
p672
NsS'blackberry-phone-icon'
p673
NsS'iphone-enable-4inch-retina'
p674
NsS'ws8-custom-manifest'
p675
NsS'version-major'
p676
NsS'wp8-genre-isgame'
p677
NsS'uiq3-uid'
p678
NsS'iphone-splash-retina-generate'
p679
NsS'tizen-hw-acceleration'
p680
NsS'iphone_bundle_localisations'
p681
NsS'tizen-dist1-key'
p682
NsS'wp81-custom-manifest-fill'
p683
NsS'wp8-custom-manifest'
p684
NsS'nds-bannertitle-ge'
p685
NsS'iphone-sign-for-distribution'
p686
NsS'wp8-tile-fliptemplate-medium-back-image'
p687
NsS'wp8-publisher-id'
p688
NsS'icon'
p689
NsS'wp8-exclude-wxga'
p690
NsS'wp81-identity-name'
p691
NsS'uiq3-icon2-mask'
p692
NsS'iphone-splashscreen-portrait'
p693
NsS'iphone-icon-high-res'
p694
NsS'ws81-distribution-pfx-password'
p695
NsS'playbook-author'
p696
NsS'android-icon-xhdpi'
p697
NsS'linux-ext-lib'
p698
(lp699
sS'blackberry-permissions-access-internet'
p700
NsS'wp8-exclude-720p'
p701
NsS'lgtv-use-drm'
p702
NsS'symbian-platsecflags'
p703
NsS'ws8-description'
p704
NsS'blackberry-playbook-icon'
p705
NsS'copyright'
p706
NsS'win32-gles-directory'
p707
NsS'version'
p708
NsS'iphone-uiviewcontroller-based-status-bar'
p709
NsS'ws81-logo-image150x150'
p710
NsS'osx-signing-identity-app'
p711
NsS'tizen-project-url'
p712
NsS'symbian-icon-svg'
p713
NsS'android-aliasname'
p714
NsS'psp-dlgmanual'
p715
NsS'brew-uid'
p716
NsS'symbian-locationsupport'
p717
NsS'wp81-logo-image50x50'
p718
NsS'ws8-ext-managed-dll'
p719
(lp720
sS'nds-bannertitle-it'
p721
NsS'ws81-custom-manifest-fill'
p722
NsS'ws8-ext-sdk-manifest-part'
p723
(lp724
sS'uiq3-icon1-mask'
p725
NsS'winmobile-icon16'
p726
NsS'ws8-product-name'
p727
NsS'blackberry-cskpass'
p728
NsS'winmobile-start-menu-folder'
p729
NsS'brew-clsid'
p730
NsS'roku-requires-bluetooth'
p731
NsS'ws8-ext-device-capabilities'
p732
(lp733
sS'blackberry-permissions-use-camera'
p734
NsS'ws81-extra-pri'
p735
(lp736
sS'iphone-prerendered-icon'
p737
NsS'iphone-appid'
p738
NsS'ws8-identity-name'
p739
NsS'tizen-dist2-CA-path'
p740
NsS'android-external-jars'
p741
(lp742
sS'winmobile-icon64'
p743
NsS'blackberry-permissions-post-notification'
p744
NsS'winmobile-setup-dll'
p745
NsS'firefoxos-manifest'
p746
NsS'win8-winrt-extra-res'
p747
(lp748
sS'wp81-ext-sdk-manifest-part'
p749
(lp750
sS'symbian9-uid'
p751
NsS'iphone-icon-ipad-ios7'
p752
NsS'winmobile-trace-file'
p753
NsS'roku-splash-color'
p754
NsS'psp-appversion'
p755
NsS'ws8-publisher-id'
p756
NsS'android-supports-gl-texture'
p757
(lp758
sS'winmobile-png45'
p759
NsS'wp81-extra-res'
p760
(lp761
sS'android-storepass'
p762
NsS'osx-signing-identity-inst'
p763
NsS'android-custom-activity'
p764
NsS'psp-discversion'
p765
NsS'wp81-ext-managed-dll'
p766
(lp767
sS'psp-copyright'
p768
NsS'embed-icf'
p769
NsS'tizen-manifest'
p770
NsS'osx-icon'
p771
NsS'webos-appinfo'
p772
NsS'psp-dlghealthwarning'
p773
NsS'webos-appid'
p774
NsS'roku-icon-side-hd'
p775
NsS'iphone-icon-ipad-search-high-res-ios7'
p776
NsS'iphone-extra-plist'
p777
(lp778
sS'ws81-ext-sdk-manifest-part'
p779
(lp780
sS'loader_name_prefix'
p781
NsS'iphone-launch-dir'
p782
NsS'nds-titlename'
p783
NsS'ws81-logo-image50x50'
p784
NsS'wp81-custom-manifest'
p785
NsS'osx-entitlements-plist'
p786
NsS'psp-dlgicon0'
p787
NsS'winmobile-nouninstall'
p788
NsS'psp-discid'
p789
NsS'tizen-dist2-password'
p790
NsS'ws8-ext-sdk-ref'
p791
(lp792
sS'iphone-extra-string'
p793
(lp794
sS'version-string'
p795
NsS'iphone-icon-high-res-ios7'
p796
NsS'blackberry-permissions-record-audio'
p797
NsS'ws8-certificate-end-date'
p798
NsS'tizen-so'
p799
(lp800
sS'wp8-tile-fliptemplate-small-image'
p801
NsS'playbook-authorid'
p802
NsS'iphone-signing-identity'
p803
NsS'roku-persist-quota'
p804
NsS'nds-bannertitle-fr'
p805
NsS'ws8-distribution-pfx'
p806
NsS'ws8-publisher-display-name'
p807
NsS'brew-icon-small'
p808
NsS'psp-dlgpic2'
p809
NsS'psp-dlgpic0'
p810
NsS'psp-pic0'
p811
NsS'psp-pic1'
p812
NsS'win32-pref-windowtitle'
p813
NsS'psp-icon0'
p814
NsS'psp-icon1'
p815
NsS'ws81-identity-name'
p816
NsS'winmobile-icon'
p817
NsS'iphone-no-splash'
p818
NsS'iphone-splash'
p819
NsS'iphone-app-fonts'
p820
NsS'wp8-ext-native-dll'
p821
(lp822
sS'wp81-splash-screen-image480x800'
p823
NsS'ws81-distribution-cer'
p824
NsS'iphone-backgroundmode-audio'
p825
NsS'uiq3-icon2'
p826
NsS'uiq3-icon3'
p827
NsS'uiq3-icon1'
p828
NsS'uiq3-icon1-format'
p829
NsS'ws8-logo-image50x50'
p830
NsS'iphone-icon-ipad-search'
p831
NsS'symbian-run-on-install'
p832
NsS'wp81-description'
p833
NsS'ws81-publisher-display-name'
p834
NsS'firefoxos-xulrunner'
p835
NsS'symbian-soundrecordsupport'
p836
NsS'nds-bannertitle-sp'
p837
NsS'psp-producer'
p838
NsS'iphone-apple-wwdr-cert'
p839
NsS'android-icon-nonstandard'
p840
NsS'win32-pref-processtitle'
p841
NsS'nds-bannertitle-hn'
p842
NsS'tizen-dist2-key'
p843
NsS'brew-depends'
p844
NsS'ws81-custom-manifest'
p845
NsS'iphone-allow-launch-rotation'
p846
NsS'iphone-icon-ipad-search-ios7'
p847
NsS'brew-icon-medium'
p848
NsS'iphone-bundle-url-name'
p849
NsS'wp8-tile-fliptemplate-large-front-image'
p850
NsS'tizen-dist2-CA-root-path'
p851
NsS'ws81-description'
p852
NsS'uiq3-icon3-format'
p853
NsS'ws81-logo-image30x30'
p854
NsS'win8-phone-extra-res'
p855
(lp856
sS'iphone-signing-host'
p857
NsS'tizen-icon'
p858
NsS'osx-info-plist'
p859
NsS'symbian-icon1-format'
p860
NsS'ws81-distribution-pfx'
p861
NsS'blackberry-authorid'
p862
NsS'ws81-publisher-id'
p863
NsS'win8-store-extra-res'
p864
(lp865
sS'wp8-description'
p866
NsS'iphone-link-opts'
p867
(lp868
sS'ws81-ext-sdk-ref'
p869
(lp870
sS'roku-splash-min-time'
p871
NsS'wp8-tile-fliptemplate-medium-front-image'
p872
NsS'iphone-disable-launch-images'
p873
NsS'provider'
p874
NsS'playbook-keystore'
p875
NsS'tizen-appid'
p876
NsS'wp8-extra-res'
p877
(lp878
sS'symbian-osexecsupport'
p879
NsS'android-install-location'
p880
NsS'nds-privatesavedatasize'
p881
NsS'iphone-disable-testflight'
p882
NsS'playbook-storepass'
p883
NsS'android-icon-ldpi'
p884
NsS'manufacturer'
p885
NsS'itunes-artwork'
p886
NsS'iphone-extra-sections'
p887
NsS'ws81-product-name'
p888
NsS'ws81-ext-native-dll'
p889
(lp890
sS'ws8-extra-pri'
p891
(lp892
sS'wp8-product-id'
p893
NsS'ws8-logo-image30x30'
p894
NsS'wp8-ext-managed-dll'
p895
(lp896
sS'iphone-splashscreen-landscape'
p897
NsS'symbian-maxheapsize'
p898
NsS'android-extra-packages'
p899
(lp900
sS'priv-sign-key'
p901
NsS'networking'
p902
NsS'android-icon'
p903
NsS'iphone-icon-settings'
p904
NsS'wp81-phone-product-id'
p905
NsS'firefoxos-icon-60X60'
p906
NsS'iphone-distribution-cert'
p907
NsS'android_extra_strings'
p908
NsS'nds-bannertitle-en'
p909
NsS'wp8-tile-fliptemplate-title'
p910
NsS'android-so'
p911
(lp912
sS'wp8-higher-mem'
p913
NsS'wp8-ext-sdk-ref'
p914
(lp915
sS'wp8-fast-resume-mode'
p916
NsS'roku-splash-screen-hd'
p917
NsS'iphone-bundle-url-schemes'
p918
NsS'roku-screensaver-private'
p919
NsS'osx-extra-res'
p920
(lp921
sS'ws81-extra-res'
p922
(lp923
sS'playbook-icon'
p924
NsS'uid'
p925
NsS'pkguid-as-uid'
p926
NsS'wp81-ext-native-dll'
p927
(lp928
sS'tizen-dist1-password'
p929
NsS'roku-screensaver-title'
p930
NsS'osx-minimum-osx-version'
p931
NsS'symbian-cert'
p932
NsS'iphone-icon'
p933
NsS'ws81-ext-capabilities'
p934
(lp935
sS'ws8-distribution-cer'
p936
NsS'playbook-access-shared'
p937
NsS'iphone-icon-ipad-high-res-ios7'
p938
NsS'iphone-link-libs'
p939
(lp940
sS'wp8-exclude-wvga'
p941
NsS'assets'
p942
NsS'wp8-tile-fliptemplate-large-back-image'
p943
NsS'wp8-custom-manifest-fill'
p944
NsS'pub-sign-key'
p945
NsS'android-extra-strings'
p946
NsS'tizen-author-CA-path'
p947
Nssg335
g475
sbssS'platform'
p948
S'S3E'
p949
sg67
S'1.0'
p950
sS'arcade_platform'
p951
g4
sS'extensions'
p952
(dp953
sS'source_groups_tree'
p954
(dp955
S'(libpng)'
p956
(dp957
S'h'
p958
(dp959
S'c:/marmalade/7.5/modules/third_party/libpng/h/png.h'
p960
(lp961
I1
a(dp962
asS'c:/marmalade/7.5/modules/third_party/libpng/h/pngconf.h'
p963
(lp964
I1
ag962
assS'c:/marmalade/7.5/modules/third_party/libpng/libpng.mkf'
p965
(lp966
I1
a(dp967
assS'(libjpeg)'
p968
(dp969
S'c:/marmalade/7.5/modules/third_party/libjpeg/libjpeg.mkf'
p970
(lp971
I1
a(dp972
asg958
(dp973
S'c:/marmalade/7.5/modules/third_party/libjpeg/h/jerror.h'
p974
(lp975
I1
a(dp976
asS'c:/marmalade/7.5/modules/third_party/libjpeg/h/jdhuff.h'
p977
(lp978
I1
ag976
asS'c:/marmalade/7.5/modules/third_party/libjpeg/h/cderror.h'
p979
(lp980
I1
ag976
asS'c:/marmalade/7.5/modules/third_party/libjpeg/h/transupp.h'
p981
(lp982
I1
ag976
asS'c:/marmalade/7.5/modules/third_party/libjpeg/h/jinclude.h'
p983
(lp984
I1
ag976
asS'c:/marmalade/7.5/modules/third_party/libjpeg/h/jmorecfg.h'
p985
(lp986
I1
ag976
asS'c:/marmalade/7.5/modules/third_party/libjpeg/h/jdct.h'
p987
(lp988
I1
ag976
asS'c:/marmalade/7.5/modules/third_party/libjpeg/h/jmemsys.h'
p989
(lp990
I1
ag976
asS'c:/marmalade/7.5/modules/third_party/libjpeg/h/jpegint.h'
p991
(lp992
I1
ag976
asS'c:/marmalade/7.5/modules/third_party/libjpeg/h/jchuff.h'
p993
(lp994
I1
ag976
asS'c:/marmalade/7.5/modules/third_party/libjpeg/h/cdjpeg.h'
p995
(lp996
I1
ag976
asS'c:/marmalade/7.5/modules/third_party/libjpeg/h/jversion.h'
p997
(lp998
I1
ag976
asS'c:/marmalade/7.5/modules/third_party/libjpeg/h/jconfig.h'
p999
(lp1000
I1
ag976
asS'c:/marmalade/7.5/modules/third_party/libjpeg/h/jpeglib.h'
p1001
(lp1002
I1
ag976
asssS"'Marmalade Studio'"
p1003
(dp1004
S'iwutil'
p1005
(dp1006
S'c:/marmalade/7.5/modules/iwutil/h/IwSingleton.h'
p1007
(lp1008
I1
a(dp1009
asS'c:/marmalade/7.5/modules/iwutil/h/IwMath.h'
p1010
(lp1011
I1
ag1009
asS'c:/marmalade/7.5/modules/iwutil/h/IwBuffer.h'
p1012
(lp1013
I1
ag1009
asS'c:/marmalade/7.5/modules/iwutil/h/IwCore.h'
p1014
(lp1015
I1
ag1009
asS'c:/marmalade/7.5/modules/iwutil/h/IwDivide.h'
p1016
(lp1017
I1
ag1009
asS'c:/marmalade/7.5/modules/iwutil/h/IwMemory.h'
p1018
(lp1019
I1
ag1009
asS'c:/marmalade/7.5/modules/iwutil/h/IwImageHelper.h'
p1020
(lp1021
I1
ag1009
asS'c:/marmalade/7.5/modules/iwutil/h/IwManagedList.h'
p1022
(lp1023
I1
ag1009
asS'c:/marmalade/7.5/modules/iwutil/h/IwFibre.h'
p1024
(lp1025
I1
ag1009
asS'c:/marmalade/7.5/modules/iwutil/h/IwClassFactory.h'
p1026
(lp1027
I1
ag1009
asS'c:/marmalade/7.5/modules/iwutil/h/IwDivTable.h'
p1028
(lp1029
I1
ag1009
asS'c:/marmalade/7.5/modules/iwutil/h/IwManaged.h'
p1030
(lp1031
I1
ag1009
asS'c:/marmalade/7.5/modules/iwutil/h/IwTextParseable.h'
p1032
(lp1033
I1
ag1009
asS'c:/marmalade/7.5/modules/iwutil/h/IwMemManagerDL.h'
p1034
(lp1035
I1
ag1009
asS'c:/marmalade/7.5/modules/iwutil/h/IwRandom.h'
p1036
(lp1037
I1
ag1009
asS'c:/marmalade/7.5/modules/iwutil/h/IwTextParser.h'
p1038
(lp1039
I1
ag1009
asS'c:/marmalade/7.5/modules/iwutil/h/IwDebug.h'
p1040
(lp1041
I1
ag1009
asS'c:/marmalade/7.5/modules/iwutil/h/IwUTF8.h'
p1042
(lp1043
I1
ag1009
asS'c:/marmalade/7.5/modules/iwutil/docs/iwutil.config.txt'
p1044
(lp1045
I1
ag1009
asS'c:/marmalade/7.5/modules/iwutil/h/IwAllocator.h'
p1046
(lp1047
I1
ag1009
asS'c:/marmalade/7.5/modules/iwutil/h/IwMemBucketHelpers.h'
p1048
(lp1049
I1
ag1009
asS'c:/marmalade/7.5/modules/iwutil/h/IwTextParserITX.h'
p1050
(lp1051
I1
ag1009
asS'c:/marmalade/7.5/modules/iwutil/h/IwKeymap.h'
p1052
(lp1053
I1
ag1009
asS'c:/marmalade/7.5/modules/iwutil/h/IwImage.h'
p1054
(lp1055
I1
ag1009
asS'c:/marmalade/7.5/modules/iwutil/h/IwOptimiseARM.h'
p1056
(lp1057
I1
ag1009
asS'c:/marmalade/7.5/modules/iwutil/h/IwMemBucket.h'
p1058
(lp1059
I1
ag1009
asS'c:/marmalade/7.5/modules/iwutil/h/IwOptimiseSize.h'
p1060
(lp1061
I1
ag1009
asS'c:/marmalade/7.5/modules/iwutil/h/IwRuntime.h'
p1062
(lp1063
I1
ag1009
asS'c:/marmalade/7.5/modules/iwutil/h/IwPath.h'
p1064
(lp1065
I1
ag1009
asS'c:/marmalade/7.5/modules/iwutil/h/IwOptimiseSpeed.h'
p1066
(lp1067
I1
ag1009
asS'c:/marmalade/7.5/modules/iwutil/h/IwList.h'
p1068
(lp1069
I1
ag1009
asS'c:/marmalade/7.5/modules/iwutil/h/IwAutoFile.h'
p1070
(lp1071
I1
ag1009
asS'c:/marmalade/7.5/modules/iwutil/h/IwVariableBitField.h'
p1072
(lp1073
I1
ag1009
asS'c:/marmalade/7.5/modules/iwutil/h/IwHashString.h'
p1074
(lp1075
I1
ag1009
asS'c:/marmalade/7.5/modules/iwutil/h/IwOptimiseThumb.h'
p1076
(lp1077
I1
ag1009
asS'c:/marmalade/7.5/modules/iwutil/iwutil.mkf'
p1078
(lp1079
I1
a(dp1080
asS'c:/marmalade/7.5/modules/iwutil/h/IwResource.h'
p1081
(lp1082
I1
ag1009
asS'c:/marmalade/7.5/modules/iwutil/h/IwString.h'
p1083
(lp1084
I1
ag1009
asS'c:/marmalade/7.5/modules/iwutil/h/IwFile.h'
p1085
(lp1086
I1
ag1009
asS'c:/marmalade/7.5/modules/iwutil/h/IwUncopyable.h'
p1087
(lp1088
I1
ag1009
asS'c:/marmalade/7.5/modules/iwutil/h/IwProfileMenu.h'
p1089
(lp1090
I1
ag1009
asS'c:/marmalade/7.5/modules/iwutil/h/IwCopyingPtr.h'
p1091
(lp1092
I1
ag1009
asS'c:/marmalade/7.5/modules/iwutil/h/IwEvent.h'
p1093
(lp1094
I1
ag1009
asS'c:/marmalade/7.5/modules/iwutil/h/IwMenu.h'
p1095
(lp1096
I1
ag1009
asS'c:/marmalade/7.5/modules/iwutil/h/IwArray.h'
p1097
(lp1098
I1
ag1009
asS'c:/marmalade/7.5/modules/iwutil/h/IwSerialise.h'
p1099
(lp1100
I1
ag1009
asS'c:/marmalade/7.5/modules/iwutil/h/IwTypes.h'
p1101
(lp1102
I1
ag1009
asS'c:/marmalade/7.5/modules/iwutil/h/IwUtilInitTerm.h'
p1103
(lp1104
I1
ag1009
asS'c:/marmalade/7.5/modules/iwutil/h/IwUtil.h'
p1105
(lp1106
I1
ag1009
asS'c:/marmalade/7.5/modules/iwutil/h/IwChar.h'
p1107
(lp1108
I1
ag1009
asssS'(zlib)'
p1109
(dp1110
g958
(dp1111
S'c:/marmalade/7.5/modules/third_party/zlib/h/zconf.h'
p1112
(lp1113
I1
a(dp1114
asS'c:/marmalade/7.5/modules/third_party/zlib/h/zlib.h'
p1115
(lp1116
I1
ag1114
assS'c:/marmalade/7.5/modules/third_party/zlib/zlib.mkf'
p1117
(lp1118
I1
a(dp1119
assS'c:/Users/blogs_000/Documents/Visual Studio 2012/Projects/SDL/SDL/Blaster/Blaster.cpp'
p1120
(lp1121
I1
a(dp1122
asS'(s3e-default)'
p1123
(dp1124
S'c:/marmalade/7.5/s3e/s3e-default.mkf'
p1125
(lp1126
I1
a(dp1127
asssS'files'
p1128
(dp1129
S'hash_map'
p1130
g309
(cmkb_main
File
p1131
g311
Ntp1132
Rp1133
(dp1134
S'flags'
p1135
(dp1136
sS'group'
p1137
(lp1138
S"'Marmalade System (S3E)'"
p1139
aS'stdc headers'
p1140
aS'c++'
p1141
asg335
S'c:/marmalade/7.5/s3e/h/std/c++/hash_map'
p1142
sbsS'IwArray.h'
p1143
g309
(g1131
g311
Ntp1144
Rp1145
(dp1146
g1135
g1009
sg1137
(lp1147
g1003
ag1005
asg335
g1097
sbsS'iterator'
p1148
g309
(g1131
g311
Ntp1149
Rp1150
(dp1151
g1135
g1136
sg1137
g1138
sg335
S'c:/marmalade/7.5/s3e/h/std/c++/iterator'
p1152
sbsS'IwUTF8.h'
p1153
g309
(g1131
g311
Ntp1154
Rp1155
(dp1156
g1135
g1009
sg1137
g1147
sg335
g1042
sbsS'math_rvct.h'
p1157
g309
(g1131
g311
Ntp1158
Rp1159
(dp1160
g1135
g1136
sg1137
(lp1161
g1139
aS'stdc headers'
p1162
asg335
S'c:/marmalade/7.5/s3e/h/std/math_rvct.h'
p1163
sbsS'pthread_alloc'
p1164
g309
(g1131
g311
Ntp1165
Rp1166
(dp1167
g1135
g1136
sg1137
g1138
sg335
S'c:/marmalade/7.5/s3e/h/std/c++/pthread_alloc'
p1168
sbsS'ctype.h'
p1169
g309
(g1131
g311
Ntp1170
Rp1171
(dp1172
g1135
g1136
sg1137
g1161
sg335
S'c:/marmalade/7.5/s3e/h/std/ctype.h'
p1173
sbsS'ctime'
p1174
g309
(g1131
g311
Ntp1175
Rp1176
(dp1177
g1135
g1136
sg1137
g1138
sg335
S'c:/marmalade/7.5/s3e/h/std/c++/ctime'
p1178
sbsS's3e.h'
p1179
g309
(g1131
g311
Ntp1180
Rp1181
(dp1182
g1135
g1136
sg1137
(lp1183
g1139
asg335
S'c:/marmalade/7.5/s3e/h/s3e.h'
p1184
sbsS'errno.h'
p1185
g309
(g1131
g311
Ntp1186
Rp1187
(dp1188
g1135
g1136
sg1137
g1161
sg335
S'c:/marmalade/7.5/s3e/h/std/errno.h'
p1189
sbsS'IwUtil.h'
p1190
g309
(g1131
g311
Ntp1191
Rp1192
(dp1193
g1135
g1009
sg1137
g1147
sg335
g1105
sbsS'IwSingleton.h'
p1194
g309
(g1131
g311
Ntp1195
Rp1196
(dp1197
g1135
g1009
sg1137
g1147
sg335
g1007
sbsS'dirent.h'
p1198
g309
(g1131
g311
Ntp1199
Rp1200
(dp1201
g1135
g1136
sg1137
g1161
sg335
S'c:/marmalade/7.5/s3e/h/std/dirent.h'
p1202
sbsS'IwCore.h'
p1203
g309
(g1131
g311
Ntp1204
Rp1205
(dp1206
g1135
g1009
sg1137
g1147
sg335
g1014
sbsS'dlfcn.h'
p1207
g309
(g1131
g311
Ntp1208
Rp1209
(dp1210
g1135
g1136
sg1137
g1161
sg335
S'c:/marmalade/7.5/s3e/h/std/dlfcn.h'
p1211
sbsS'fstream.h'
p1212
g309
(g1131
g311
Ntp1213
Rp1214
(dp1215
g1135
g1136
sg1137
g1138
sg335
S'c:/marmalade/7.5/s3e/h/std/c++/fstream.h'
p1216
sbsS'cfloat'
p1217
g309
(g1131
g311
Ntp1218
Rp1219
(dp1220
g1135
g1136
sg1137
g1138
sg335
S'c:/marmalade/7.5/s3e/h/std/c++/cfloat'
p1221
sbsS'IwAllocator.h'
p1222
g309
(g1131
g311
Ntp1223
Rp1224
(dp1225
g1135
g1009
sg1137
g1147
sg335
g1046
sbsS'stdio_streambuf'
p1226
g309
(g1131
g311
Ntp1227
Rp1228
(dp1229
g1135
g1136
sg1137
g1138
sg335
S'c:/marmalade/7.5/s3e/h/std/c++/stdio_streambuf'
p1230
sbsS's3eGL.h'
p1231
g309
(g1131
g311
Ntp1232
Rp1233
(dp1234
g1135
g1136
sg1137
g1183
sg335
S'c:/marmalade/7.5/s3e/h/s3eGL.h'
p1235
sbsS'wctype.h'
p1236
g309
(g1131
g311
Ntp1237
Rp1238
(dp1239
g1135
g1136
sg1137
g1161
sg335
S'c:/marmalade/7.5/s3e/h/std/wctype.h'
p1240
sbsS'IwPath.h'
p1241
g309
(g1131
g311
Ntp1242
Rp1243
(dp1244
g1135
g1009
sg1137
g1147
sg335
g1064
sbsS'sched.h'
p1245
g309
(g1131
g311
Ntp1246
Rp1247
(dp1248
g1135
g1136
sg1137
g1161
sg335
S'c:/marmalade/7.5/s3e/h/std/sched.h'
p1249
sbsS'valarray'
p1250
g309
(g1131
g311
Ntp1251
Rp1252
(dp1253
g1135
g1136
sg1137
g1138
sg335
S'c:/marmalade/7.5/s3e/h/std/c++/valarray'
p1254
sbsS'cassert'
p1255
g309
(g1131
g311
Ntp1256
Rp1257
(dp1258
g1135
g1136
sg1137
g1138
sg335
S'c:/marmalade/7.5/s3e/h/std/c++/cassert'
p1259
sbsS'grp.h'
p1260
g309
(g1131
g311
Ntp1261
Rp1262
(dp1263
g1135
g1136
sg1137
g1161
sg335
S'c:/marmalade/7.5/s3e/h/std/grp.h'
p1264
sbsS'list'
p1265
g309
(g1131
g311
Ntp1266
Rp1267
(dp1268
g1135
g1136
sg1137
g1138
sg335
S'c:/marmalade/7.5/s3e/h/std/c++/list'
p1269
sbsS'istream'
p1270
g309
(g1131
g311
Ntp1271
Rp1272
(dp1273
g1135
g1136
sg1137
g1138
sg335
S'c:/marmalade/7.5/s3e/h/std/c++/istream'
p1274
sbsS'poll.h'
p1275
g309
(g1131
g311
Ntp1276
Rp1277
(dp1278
g1135
g1136
sg1137
g1161
sg335
S'c:/marmalade/7.5/s3e/h/std/poll.h'
p1279
sbsS'jpeglib.h'
p1280
g309
(g1131
g311
Ntp1281
Rp1282
(dp1283
g1135
g976
sg1137
(lp1284
g968
ag958
asg335
g1001
sbsS's3eAccelerometer.h'
p1285
g309
(g1131
g311
Ntp1286
Rp1287
(dp1288
g1135
g1136
sg1137
g1183
sg335
S'c:/marmalade/7.5/s3e/h/s3eAccelerometer.h'
p1289
sbsS'iostream.h'
p1290
g309
(g1131
g311
Ntp1291
Rp1292
(dp1293
g1135
g1136
sg1137
g1138
sg335
S'c:/marmalade/7.5/s3e/h/std/c++/iostream.h'
p1294
sbsS's3eOSReadString.h'
p1295
g309
(g1131
g311
Ntp1296
Rp1297
(dp1298
g1135
g1136
sg1137
(lp1299
g1139
aS'Extensions'
p1300
asg335
S'c:/marmalade/7.5/s3e/h/ext/s3eOSReadString.h'
p1301
sbsS'cstddef'
p1302
g309
(g1131
g311
Ntp1303
Rp1304
(dp1305
g1135
g1136
sg1137
g1138
sg335
S'c:/marmalade/7.5/s3e/h/std/c++/cstddef'
p1306
sbsS'iosfwd'
p1307
g309
(g1131
g311
Ntp1308
Rp1309
(dp1310
g1135
g1136
sg1137
g1138
sg335
S'c:/marmalade/7.5/s3e/h/std/c++/iosfwd'
p1311
sbsS'string'
p1312
g309
(g1131
g311
Ntp1313
Rp1314
(dp1315
g1135
g1136
sg1137
g1138
sg335
S'c:/marmalade/7.5/s3e/h/std/c++/string'
p1316
sbsS'IwMemory.h'
p1317
g309
(g1131
g311
Ntp1318
Rp1319
(dp1320
g1135
g1009
sg1137
g1147
sg335
g1018
sbsS'mman.h'
p1321
g309
(g1131
g311
Ntp1322
Rp1323
(dp1324
g1135
g1136
sg1137
(lp1325
g1139
aS'stdc headers'
p1326
aS'sys'
p1327
asg335
S'c:/marmalade/7.5/s3e/h/std/sys/mman.h'
p1328
sbsS'IwRandom.h'
p1329
g309
(g1131
g311
Ntp1330
Rp1331
(dp1332
g1135
g1009
sg1137
g1147
sg335
g1036
sbsS'libgen.h'
p1333
g309
(g1131
g311
Ntp1334
Rp1335
(dp1336
g1135
g1136
sg1137
g1161
sg335
S'c:/marmalade/7.5/s3e/h/std/libgen.h'
p1337
sbsS'utsname.h'
p1338
g309
(g1131
g311
Ntp1339
Rp1340
(dp1341
g1135
g1136
sg1137
g1325
sg335
S'c:/marmalade/7.5/s3e/h/std/sys/utsname.h'
p1342
sbsS'fstream'
p1343
g309
(g1131
g311
Ntp1344
Rp1345
(dp1346
g1135
g1136
sg1137
g1138
sg335
S'c:/marmalade/7.5/s3e/h/std/c++/fstream'
p1347
sbsS'wait.h'
p1348
g309
(g1131
g311
Ntp1349
Rp1350
(dp1351
g1135
g1136
sg1137
g1325
sg335
S'c:/marmalade/7.5/s3e/h/std/sys/wait.h'
p1352
sbsS'IwFile.h'
p1353
g309
(g1131
g311
Ntp1354
Rp1355
(dp1356
g1135
g1009
sg1137
g1147
sg335
g1085
sbsS'IwTextParseable.h'
p1357
g309
(g1131
g311
Ntp1358
Rp1359
(dp1360
g1135
g1009
sg1137
g1147
sg335
g1032
sbsS'istream.h'
p1361
g309
(g1131
g311
Ntp1362
Rp1363
(dp1364
g1135
g1136
sg1137
g1138
sg335
S'c:/marmalade/7.5/s3e/h/std/c++/istream.h'
p1365
sbsS'type_traits.h'
p1366
g309
(g1131
g311
Ntp1367
Rp1368
(dp1369
g1135
g1136
sg1137
g1138
sg335
S'c:/marmalade/7.5/s3e/h/std/c++/type_traits.h'
p1370
sbsS'algorithm'
p1371
g309
(g1131
g311
Ntp1372
Rp1373
(dp1374
g1135
g1136
sg1137
g1138
sg335
S'c:/marmalade/7.5/s3e/h/std/c++/algorithm'
p1375
sbsS'cwchar'
p1376
g309
(g1131
g311
Ntp1377
Rp1378
(dp1379
g1135
g1136
sg1137
g1138
sg335
S'c:/marmalade/7.5/s3e/h/std/c++/cwchar'
p1380
sbsS'stdint.h'
p1381
g309
(g1131
g311
Ntp1382
Rp1383
(dp1384
g1135
g1136
sg1137
g1161
sg335
S'c:/marmalade/7.5/s3e/h/std/stdint.h'
p1385
sbsS'semaphore.h'
p1386
g309
(g1131
g311
Ntp1387
Rp1388
(dp1389
g1135
g1136
sg1137
g1161
sg335
S'c:/marmalade/7.5/s3e/h/std/semaphore.h'
p1390
sbsS'iomanip'
p1391
g309
(g1131
g311
Ntp1392
Rp1393
(dp1394
g1135
g1136
sg1137
g1138
sg335
S'c:/marmalade/7.5/s3e/h/std/c++/iomanip'
p1395
sbsS'gl2.h'
p1396
g309
(g1131
g311
Ntp1397
Rp1398
(dp1399
g1135
g1136
sg1137
(lp1400
g1139
aS'GL'
p1401
aS'GLES 2.0'
p1402
asg335
S'c:/marmalade/7.5/s3e/h/GLES2/gl2.h'
p1403
sbsS'assert.h'
p1404
g309
(g1131
g311
Ntp1405
Rp1406
(dp1407
g1135
g1136
sg1137
g1161
sg335
S'c:/marmalade/7.5/s3e/h/std/assert.h'
p1408
sbsS'param.h'
p1409
g309
(g1131
g311
Ntp1410
Rp1411
(dp1412
g1135
g1136
sg1137
g1325
sg335
S'c:/marmalade/7.5/s3e/h/std/sys/param.h'
p1413
sbsS'dir.h'
p1414
g309
(g1131
g311
Ntp1415
Rp1416
(dp1417
g1135
g1136
sg1137
g1325
sg335
S'c:/marmalade/7.5/s3e/h/std/sys/dir.h'
p1418
sbsS'IwDivide.h'
p1419
g309
(g1131
g311
Ntp1420
Rp1421
(dp1422
g1135
g1009
sg1137
g1147
sg335
g1016
sbsS'locale.h'
p1423
g309
(g1131
g311
Ntp1424
Rp1425
(dp1426
g1135
g1136
sg1137
g1161
sg335
S'c:/marmalade/7.5/s3e/h/std/locale.h'
p1427
sbsS'IwManagedList.h'
p1428
g309
(g1131
g311
Ntp1429
Rp1430
(dp1431
g1135
g1009
sg1137
g1147
sg335
g1022
sbsS'vector'
p1432
g309
(g1131
g311
Ntp1433
Rp1434
(dp1435
g1135
g1136
sg1137
g1138
sg335
S'c:/marmalade/7.5/s3e/h/std/c++/vector'
p1436
sbsS'ostream'
p1437
g309
(g1131
g311
Ntp1438
Rp1439
(dp1440
g1135
g1136
sg1137
g1138
sg335
S'c:/marmalade/7.5/s3e/h/std/c++/ostream'
p1441
sbsS'termios.h'
p1442
g309
(g1131
g311
Ntp1443
Rp1444
(dp1445
g1135
g1136
sg1137
g1161
sg335
S'c:/marmalade/7.5/s3e/h/std/termios.h'
p1446
sbsS'cwctype'
p1447
g309
(g1131
g311
Ntp1448
Rp1449
(dp1450
g1135
g1136
sg1137
g1138
sg335
S'c:/marmalade/7.5/s3e/h/std/c++/cwctype'
p1451
sbsS's3ePointer.h'
p1452
g309
(g1131
g311
Ntp1453
Rp1454
(dp1455
g1135
g1136
sg1137
g1183
sg335
S'c:/marmalade/7.5/s3e/h/s3ePointer.h'
p1456
sbsS'IwManaged.h'
p1457
g309
(g1131
g311
Ntp1458
Rp1459
(dp1460
g1135
g1009
sg1137
g1147
sg335
g1030
sbsS'stdiostream.h'
p1461
g309
(g1131
g311
Ntp1462
Rp1463
(dp1464
g1135
g1136
sg1137
g1138
sg335
S'c:/marmalade/7.5/s3e/h/std/c++/stdiostream.h'
p1465
sbsS'sstream'
p1466
g309
(g1131
g311
Ntp1467
Rp1468
(dp1469
g1135
g1136
sg1137
g1138
sg335
S'c:/marmalade/7.5/s3e/h/std/c++/sstream'
p1470
sbsS'alloca.h'
p1471
g309
(g1131
g311
Ntp1472
Rp1473
(dp1474
g1135
g1136
sg1137
g1161
sg335
S'c:/marmalade/7.5/s3e/h/std/alloca.h'
p1475
sbsS'jerror.h'
p1476
g309
(g1131
g311
Ntp1477
Rp1478
(dp1479
g1135
g976
sg1137
g1284
sg335
g974
sbsS's3eCompass.h'
p1480
g309
(g1131
g311
Ntp1481
Rp1482
(dp1483
g1135
g1136
sg1137
g1183
sg335
S'c:/marmalade/7.5/s3e/h/s3eCompass.h'
p1484
sbsS'prctl.h'
p1485
g309
(g1131
g311
Ntp1486
Rp1487
(dp1488
g1135
g1136
sg1137
g1325
sg335
S'c:/marmalade/7.5/s3e/h/std/sys/prctl.h'
p1489
sbsS'netdb.h'
p1490
g309
(g1131
g311
Ntp1491
Rp1492
(dp1493
g1135
g1136
sg1137
g1161
sg335
S'c:/marmalade/7.5/s3e/h/std/netdb.h'
p1494
sbsS's3eOSExec.h'
p1495
g309
(g1131
g311
Ntp1496
Rp1497
(dp1498
g1135
g1136
sg1137
g1299
sg335
S'c:/marmalade/7.5/s3e/h/ext/s3eOSExec.h'
p1499
sbsS'locale'
p1500
g309
(g1131
g311
Ntp1501
Rp1502
(dp1503
g1135
g1136
sg1137
g1138
sg335
S'c:/marmalade/7.5/s3e/h/std/c++/locale'
p1504
sbsS'zconf.h'
p1505
g309
(g1131
g311
Ntp1506
Rp1507
(dp1508
g1135
g1114
sg1137
(lp1509
g1109
ag958
asg335
g1112
sbsS'cderror.h'
p1510
g309
(g1131
g311
Ntp1511
Rp1512
(dp1513
g1135
g976
sg1137
g1284
sg335
g979
sbsS'climits'
p1514
g309
(g1131
g311
Ntp1515
Rp1516
(dp1517
g1135
g1136
sg1137
g1138
sg335
S'c:/marmalade/7.5/s3e/h/std/c++/climits'
p1518
sbsS's3e.config.txt'
p1519
g309
(g1131
g311
Ntp1520
Rp1521
(dp1522
g1135
g1136
sg1137
g1183
sg335
S'c:/marmalade/7.5/s3e/s3e.config.txt'
p1523
sbsS'numeric'
p1524
g309
(g1131
g311
Ntp1525
Rp1526
(dp1527
g1135
g1136
sg1137
g1138
sg335
S'c:/marmalade/7.5/s3e/h/std/c++/numeric'
p1528
sbsS'utime.h'
p1529
g309
(g1131
g311
Ntp1530
Rp1531
(dp1532
g1135
g1136
sg1137
g1161
sg335
S'c:/marmalade/7.5/s3e/h/std/utime.h'
p1533
sbsS'cdjpeg.h'
p1534
g309
(g1131
g311
Ntp1535
Rp1536
(dp1537
g1135
g976
sg1137
g1284
sg335
g995
sbsS'cstdio'
p1538
g309
(g1131
g311
Ntp1539
Rp1540
(dp1541
g1135
g1136
sg1137
g1138
sg335
S'c:/marmalade/7.5/s3e/h/std/c++/cstdio'
p1542
sbsS's3eVibra.h'
p1543
g309
(g1131
g311
Ntp1544
Rp1545
(dp1546
g1135
g1136
sg1137
g1183
sg335
S'c:/marmalade/7.5/s3e/h/s3eVibra.h'
p1547
sbsS'jversion.h'
p1548
g309
(g1131
g311
Ntp1549
Rp1550
(dp1551
g1135
g976
sg1137
g1284
sg335
g997
sbsS'fnmatch.h'
p1552
g309
(g1131
g311
Ntp1553
Rp1554
(dp1555
g1135
g1136
sg1137
g1161
sg335
S'c:/marmalade/7.5/s3e/h/std/fnmatch.h'
p1556
sbsS'jdhuff.h'
p1557
g309
(g1131
g311
Ntp1558
Rp1559
(dp1560
g1135
g976
sg1137
g1284
sg335
g977
sbsS'stack'
p1561
g309
(g1131
g311
Ntp1562
Rp1563
(dp1564
g1135
g1136
sg1137
g1138
sg335
S'c:/marmalade/7.5/s3e/h/std/c++/stack'
p1565
sbsS'sendfile.h'
p1566
g309
(g1131
g311
Ntp1567
Rp1568
(dp1569
g1135
g1136
sg1137
g1325
sg335
S'c:/marmalade/7.5/s3e/h/std/sys/sendfile.h'
p1570
sbsS'strings.h'
p1571
g309
(g1131
g311
Ntp1572
Rp1573
(dp1574
g1135
g1136
sg1137
g1161
sg335
S'c:/marmalade/7.5/s3e/h/std/strings.h'
p1575
sbsS'inttypes.h'
p1576
g309
(g1131
g311
Ntp1577
Rp1578
(dp1579
g1135
g1136
sg1137
g1161
sg335
S'c:/marmalade/7.5/s3e/h/std/inttypes.h'
p1580
sbsS's3eAudio.h'
p1581
g309
(g1131
g311
Ntp1582
Rp1583
(dp1584
g1135
g1136
sg1137
g1183
sg335
S'c:/marmalade/7.5/s3e/h/s3eAudio.h'
p1585
sbsS'new'
p1586
g309
(g1131
g311
Ntp1587
Rp1588
(dp1589
g1135
g1136
sg1137
g1138
sg335
S'c:/marmalade/7.5/s3e/h/std/c++/new'
p1590
sbsS'IwImage.h'
p1591
g309
(g1131
g311
Ntp1592
Rp1593
(dp1594
g1135
g1009
sg1137
g1147
sg335
g1054
sbsS's3eImagePicker.h'
p1595
g309
(g1131
g311
Ntp1596
Rp1597
(dp1598
g1135
g1136
sg1137
g1299
sg335
S'c:/marmalade/7.5/s3e/h/ext/s3eImagePicker.h'
p1599
sbsS's3eExt.h'
p1600
g309
(g1131
g311
Ntp1601
Rp1602
(dp1603
g1135
g1136
sg1137
g1183
sg335
S'c:/marmalade/7.5/s3e/h/s3eExt.h'
p1604
sbsS'transupp.h'
p1605
g309
(g1131
g311
Ntp1606
Rp1607
(dp1608
g1135
g976
sg1137
g1284
sg335
g981
sbsS'IwMath.h'
p1609
g309
(g1131
g311
Ntp1610
Rp1611
(dp1612
g1135
g1009
sg1137
g1147
sg335
g1010
sbsS's3eSurface.h'
p1613
g309
(g1131
g311
Ntp1614
Rp1615
(dp1616
g1135
g1136
sg1137
g1183
sg335
S'c:/marmalade/7.5/s3e/h/s3eSurface.h'
p1617
sbsS'time.h'
p1618
g309
(g1131
g311
Ntp1619
Rp1620
(dp1621
g1135
g1136
sg1137
g1161
sg335
S'c:/marmalade/7.5/s3e/h/std/time.h'
p1622
sbsS'stdlib.h'
p1623
g309
(g1131
g311
Ntp1624
Rp1625
(dp1626
g1135
g1136
sg1137
g1161
sg335
S'c:/marmalade/7.5/s3e/h/std/stdlib.h'
p1627
sbsS'gl3ext.h'
p1628
g309
(g1131
g311
Ntp1629
Rp1630
(dp1631
g1135
g1136
sg1137
(lp1632
g1139
aS'GL'
p1633
aS'GLES 3.0'
p1634
asg335
S'c:/marmalade/7.5/s3e/h/GLES3/gl3ext.h'
p1635
sbsS'stddef.h'
p1636
g309
(g1131
g311
Ntp1637
Rp1638
(dp1639
g1135
g1136
sg1137
g1161
sg335
S'c:/marmalade/7.5/s3e/h/std/stddef.h'
p1640
sbsS's3eWindow.h'
p1641
g309
(g1131
g311
Ntp1642
Rp1643
(dp1644
g1135
g1136
sg1137
g1299
sg335
S'c:/marmalade/7.5/s3e/h/ext/s3eWindow.h'
p1645
sbsS's3eMetrics.h'
p1646
g309
(g1131
g311
Ntp1647
Rp1648
(dp1649
g1135
g1136
sg1137
g1299
sg335
S'c:/marmalade/7.5/s3e/h/ext/s3eMetrics.h'
p1650
sbsS'IwCopyingPtr.h'
p1651
g309
(g1131
g311
Ntp1652
Rp1653
(dp1654
g1135
g1009
sg1137
g1147
sg335
g1091
sbsS'IwBuffer.h'
p1655
g309
(g1131
g311
Ntp1656
Rp1657
(dp1658
g1135
g1009
sg1137
g1147
sg335
g1012
sbsS'app.config.txt'
p1659
g309
(g1131
g311
Ntp1660
Rp1661
(dp1662
g1135
(dp1663
sg1137
g4
sg335
S'c:/Users/blogs_000/Documents/Visual Studio 2012/Projects/SDL/SDL/Blaster/data/app.config.txt'
p1664
sbsS'iostream'
p1665
g309
(g1131
g311
Ntp1666
Rp1667
(dp1668
g1135
g1136
sg1137
g1138
sg335
S'c:/marmalade/7.5/s3e/h/std/c++/iostream'
p1669
sbsS'png.h'
p1670
g309
(g1131
g311
Ntp1671
Rp1672
(dp1673
g1135
g962
sg1137
(lp1674
g956
ag958
asg335
g960
sbsS'glplatform.h'
p1675
g309
(g1131
g311
Ntp1676
Rp1677
(dp1678
g1135
g1136
sg1137
(lp1679
g1139
aS'GL'
p1680
aS'GLES 1.x'
p1681
asg335
S'c:/marmalade/7.5/s3e/h/GLES/glplatform.h'
p1682
sbsS'app.icf'
p1683
g309
(g1131
g311
Ntp1684
Rp1685
(dp1686
g1135
(dp1687
sg1137
g4
sg335
S'c:/Users/blogs_000/Documents/Visual Studio 2012/Projects/SDL/SDL/Blaster/data/app.icf'
p1688
sbsS'ucontext.h'
p1689
g309
(g1131
g311
Ntp1690
Rp1691
(dp1692
g1135
g1136
sg1137
g1161
sg335
S'c:/marmalade/7.5/s3e/h/std/ucontext.h'
p1693
sbsS's3e-default.mkf'
p1694
g309
(g1131
g311
Ntp1695
Rp1696
(dp1697
g1135
g1127
sg1137
(lp1698
g1123
asg335
g1125
sbsS'setjmp_win32.h'
p1699
g309
(g1131
g311
Ntp1700
Rp1701
(dp1702
g1135
g1136
sg1137
g1161
sg335
S'c:/marmalade/7.5/s3e/h/std/setjmp_win32.h'
p1703
sbsS'unistd.h'
p1704
g309
(g1131
g311
Ntp1705
Rp1706
(dp1707
g1135
g1136
sg1137
g1161
sg335
S'c:/marmalade/7.5/s3e/h/std/unistd.h'
p1708
sbsS's3eSecureStorage.h'
p1709
g309
(g1131
g311
Ntp1710
Rp1711
(dp1712
g1135
g1136
sg1137
g1183
sg335
S'c:/marmalade/7.5/s3e/h/s3eSecureStorage.h'
p1713
sbsS'string.h'
p1714
g309
(g1131
g311
Ntp1715
Rp1716
(dp1717
g1135
g1136
sg1137
g1161
sg335
S'c:/marmalade/7.5/s3e/h/std/string.h'
p1718
sbsS'IwResource.h'
p1719
g309
(g1131
g311
Ntp1720
Rp1721
(dp1722
g1135
g1009
sg1137
g1147
sg335
g1081
sbsS'libjpeg.mkf'
p1723
g309
(g1131
g311
Ntp1724
Rp1725
(dp1726
g1135
g972
sg1137
(lp1727
g968
asg335
g970
sbsS'IwChar.h'
p1728
g309
(g1131
g311
Ntp1729
Rp1730
(dp1731
g1135
g1009
sg1137
g1147
sg335
g1107
sbsS'streambuf.h'
p1732
g309
(g1131
g311
Ntp1733
Rp1734
(dp1735
g1135
g1136
sg1137
g1138
sg335
S'c:/marmalade/7.5/s3e/h/std/c++/streambuf.h'
p1736
sbsS'IwRuntime.h'
p1737
g309
(g1131
g311
Ntp1738
Rp1739
(dp1740
g1135
g1009
sg1137
g1147
sg335
g1062
sbsS'float.h'
p1741
g309
(g1131
g311
Ntp1742
Rp1743
(dp1744
g1135
g1136
sg1137
g1161
sg335
S'c:/marmalade/7.5/s3e/h/std/float.h'
p1745
sbsS'iomanip.h'
p1746
g309
(g1131
g311
Ntp1747
Rp1748
(dp1749
g1135
g1136
sg1137
g1138
sg335
S'c:/marmalade/7.5/s3e/h/std/c++/iomanip.h'
p1750
sbsS'limits'
p1751
g309
(g1131
g311
Ntp1752
Rp1753
(dp1754
g1135
g1136
sg1137
g1138
sg335
S'c:/marmalade/7.5/s3e/h/std/c++/limits'
p1755
sbsS'gl2platform.h'
p1756
g309
(g1131
g311
Ntp1757
Rp1758
(dp1759
g1135
g1136
sg1137
g1400
sg335
S'c:/marmalade/7.5/s3e/h/GLES2/gl2platform.h'
p1760
sbsS'queue'
p1761
g309
(g1131
g311
Ntp1762
Rp1763
(dp1764
g1135
g1136
sg1137
g1138
sg335
S'c:/marmalade/7.5/s3e/h/std/c++/queue'
p1765
sbsS'wchar.h'
p1766
g309
(g1131
g311
Ntp1767
Rp1768
(dp1769
g1135
g1136
sg1137
g1161
sg335
S'c:/marmalade/7.5/s3e/h/std/wchar.h'
p1770
sbsS's3eContacts.h'
p1771
g309
(g1131
g311
Ntp1772
Rp1773
(dp1774
g1135
g1136
sg1137
g1183
sg335
S'c:/marmalade/7.5/s3e/h/s3eContacts.h'
p1775
sbsS'IwKeymap.h'
p1776
g309
(g1131
g311
Ntp1777
Rp1778
(dp1779
g1135
g1009
sg1137
g1147
sg335
g1052
sbsS'IwDebug.h'
p1780
g309
(g1131
g311
Ntp1781
Rp1782
(dp1783
g1135
g1009
sg1137
g1147
sg335
g1040
sbsS'IwVariableBitField.h'
p1784
g309
(g1131
g311
Ntp1785
Rp1786
(dp1787
g1135
g1009
sg1137
g1147
sg335
g1072
sbsS's3eCameraCapture.h'
p1788
g309
(g1131
g311
Ntp1789
Rp1790
(dp1791
g1135
g1136
sg1137
g1299
sg335
S'c:/marmalade/7.5/s3e/h/ext/s3eCameraCapture.h'
p1792
sbsS'eglext.h'
p1793
g309
(g1131
g311
Ntp1794
Rp1795
(dp1796
g1135
g1136
sg1137
(lp1797
g1139
aS'GL'
p1798
aS'EGL'
p1799
asg335
S'c:/marmalade/7.5/s3e/h/EGL/eglext.h'
p1800
sbsS'time_1.h'
p1801
g309
(g1131
g311
Ntp1802
Rp1803
(dp1804
g1135
g1136
sg1137
g1325
sg335
S'c:/marmalade/7.5/s3e/h/std/sys/time.h'
p1805
sbsS'IwTextParser.h'
p1806
g309
(g1131
g311
Ntp1807
Rp1808
(dp1809
g1135
g1009
sg1137
g1147
sg335
g1038
sbsS'IwDivTable.h'
p1810
g309
(g1131
g311
Ntp1811
Rp1812
(dp1813
g1135
g1009
sg1137
g1147
sg335
g1028
sbsS's3eTimer.h'
p1814
g309
(g1131
g311
Ntp1815
Rp1816
(dp1817
g1135
g1136
sg1137
g1183
sg335
S'c:/marmalade/7.5/s3e/h/s3eTimer.h'
p1818
sbsS'socket.h'
p1819
g309
(g1131
g311
Ntp1820
Rp1821
(dp1822
g1135
g1136
sg1137
g1325
sg335
S'c:/marmalade/7.5/s3e/h/std/sys/socket.h'
p1823
sbsS'IwSerialise.h'
p1824
g309
(g1131
g311
Ntp1825
Rp1826
(dp1827
g1135
g1009
sg1137
g1147
sg335
g1099
sbsS'malloc.h'
p1828
g309
(g1131
g311
Ntp1829
Rp1830
(dp1831
g1135
g1136
sg1137
g1161
sg335
S'c:/marmalade/7.5/s3e/h/std/malloc.h'
p1832
sbsS'signal_1.h'
p1833
g309
(g1131
g311
Ntp1834
Rp1835
(dp1836
g1135
g1136
sg1137
g1325
sg335
S'c:/marmalade/7.5/s3e/h/std/sys/signal.h'
p1837
sbsS'cstdarg'
p1838
g309
(g1131
g311
Ntp1839
Rp1840
(dp1841
g1135
g1136
sg1137
g1138
sg335
S'c:/marmalade/7.5/s3e/h/std/c++/cstdarg'
p1842
sbsS'typeinfo'
p1843
g309
(g1131
g311
Ntp1844
Rp1845
(dp1846
g1135
g1136
sg1137
g1138
sg335
S'c:/marmalade/7.5/s3e/h/std/c++/typeinfo'
p1847
sbsS'stdarg.h'
p1848
g309
(g1131
g311
Ntp1849
Rp1850
(dp1851
g1135
g1136
sg1137
g1161
sg335
S'c:/marmalade/7.5/s3e/h/std/stdarg.h'
p1852
sbsS'strstream.h'
p1853
g309
(g1131
g311
Ntp1854
Rp1855
(dp1856
g1135
g1136
sg1137
g1138
sg335
S'c:/marmalade/7.5/s3e/h/std/c++/strstream.h'
p1857
sbsS'shm.h'
p1858
g309
(g1131
g311
Ntp1859
Rp1860
(dp1861
g1135
g1136
sg1137
g1325
sg335
S'c:/marmalade/7.5/s3e/h/std/sys/shm.h'
p1862
sbsS'jpegint.h'
p1863
g309
(g1131
g311
Ntp1864
Rp1865
(dp1866
g1135
g976
sg1137
g1284
sg335
g991
sbsS'set'
p1867
g309
(g1131
g311
Ntp1868
Rp1869
(dp1870
g1135
g1136
sg1137
g1138
sg335
S'c:/marmalade/7.5/s3e/h/std/c++/set'
p1871
sbsS'endian.h'
p1872
g309
(g1131
g311
Ntp1873
Rp1874
(dp1875
g1135
g1136
sg1137
g1161
sg335
S'c:/marmalade/7.5/s3e/h/std/endian.h'
p1876
sbsS'gl2ext.h'
p1877
g309
(g1131
g311
Ntp1878
Rp1879
(dp1880
g1135
g1136
sg1137
g1400
sg335
S'c:/marmalade/7.5/s3e/h/GLES2/gl2ext.h'
p1881
sbsS'setjmp.h'
p1882
g309
(g1131
g311
Ntp1883
Rp1884
(dp1885
g1135
g1136
sg1137
g1161
sg335
S'c:/marmalade/7.5/s3e/h/std/setjmp.h'
p1886
sbsS'mem.h'
p1887
g309
(g1131
g311
Ntp1888
Rp1889
(dp1890
g1135
g1136
sg1137
g1138
sg335
S'c:/marmalade/7.5/s3e/h/std/c++/mem.h'
p1891
sbsS'un.h'
p1892
g309
(g1131
g311
Ntp1893
Rp1894
(dp1895
g1135
g1136
sg1137
g1325
sg335
S'c:/marmalade/7.5/s3e/h/std/sys/un.h'
p1896
sbsS'temp_defines_debug.h'
p1897
g309
(g1131
g311
Ntp1898
Rp1899
(dp1900
g1135
(lp1901
sg1137
(lp1902
S"'generated files'"
p1903
asg335
S'c:/Users/blogs_000/Documents/Visual Studio 2012/Projects/SDL/SDL/Blaster/build_blaster_vc11/temp_defines_debug.h'
p1904
sbsS's3eCompression.h'
p1905
g309
(g1131
g311
Ntp1906
Rp1907
(dp1908
g1135
g1136
sg1137
g1183
sg335
S'c:/marmalade/7.5/s3e/h/s3eCompression.h'
p1909
sbsS's3eSound.h'
p1910
g309
(g1131
g311
Ntp1911
Rp1912
(dp1913
g1135
g1136
sg1137
g1183
sg335
S'c:/marmalade/7.5/s3e/h/s3eSound.h'
p1914
sbsS'glob.h'
p1915
g309
(g1131
g311
Ntp1916
Rp1917
(dp1918
g1135
g1136
sg1137
g1161
sg335
S'c:/marmalade/7.5/s3e/h/std/glob.h'
p1919
sbsS'IwClassFactory.h'
p1920
g309
(g1131
g311
Ntp1921
Rp1922
(dp1923
g1135
g1009
sg1137
g1147
sg335
g1026
sbsS'file.h'
p1924
g309
(g1131
g311
Ntp1925
Rp1926
(dp1927
g1135
g1136
sg1137
g1325
sg335
S'c:/marmalade/7.5/s3e/h/std/sys/file.h'
p1928
sbsS's3eIOSBackgroundAudio.h'
p1929
g309
(g1131
g311
Ntp1930
Rp1931
(dp1932
g1135
g1136
sg1137
g1299
sg335
S'c:/marmalade/7.5/s3e/h/ext/s3eIOSBackgroundAudio.h'
p1933
sbsS'IwOptimiseThumb.h'
p1934
g309
(g1131
g311
Ntp1935
Rp1936
(dp1937
g1135
g1009
sg1137
g1147
sg335
g1076
sbsS'cstring'
p1938
g309
(g1131
g311
Ntp1939
Rp1940
(dp1941
g1135
g1136
sg1137
g1138
sg335
S'c:/marmalade/7.5/s3e/h/std/c++/cstring'
p1942
sbsS'exception.h'
p1943
g309
(g1131
g311
Ntp1944
Rp1945
(dp1946
g1135
g1136
sg1137
g1138
sg335
S'c:/marmalade/7.5/s3e/h/std/c++/exception.h'
p1947
sbsS's3eCamera.h'
p1948
g309
(g1131
g311
Ntp1949
Rp1950
(dp1951
g1135
g1136
sg1137
g1183
sg335
S'c:/marmalade/7.5/s3e/h/s3eCamera.h'
p1952
sbsS'Blaster.cpp'
p1953
g309
(g1131
g311
Ntp1954
Rp1955
(dp1956
g1135
g1122
sg1137
(lp1957
sg335
g1120
sbsS'jconfig.h'
p1958
g309
(g1131
g311
Ntp1959
Rp1960
(dp1961
g1135
g976
sg1137
g1284
sg335
g999
sbsS'clocale'
p1962
g309
(g1131
g311
Ntp1963
Rp1964
(dp1965
g1135
g1136
sg1137
g1138
sg335
S'c:/marmalade/7.5/s3e/h/std/c++/clocale'
p1966
sbsS'memory'
p1967
g309
(g1131
g311
Ntp1968
Rp1969
(dp1970
g1135
g1136
sg1137
g1138
sg335
S'c:/marmalade/7.5/s3e/h/std/c++/memory'
p1971
sbsS'egl.h'
p1972
g309
(g1131
g311
Ntp1973
Rp1974
(dp1975
g1135
g1136
sg1137
g1797
sg335
S'c:/marmalade/7.5/s3e/h/EGL/egl.h'
p1976
sbsS'egl_1.h'
p1977
g309
(g1131
g311
Ntp1978
Rp1979
(dp1980
g1135
g1136
sg1137
g1679
sg335
S'c:/marmalade/7.5/s3e/h/GLES/egl.h'
p1981
sbsS'IwMemManagerDL.h'
p1982
g309
(g1131
g311
Ntp1983
Rp1984
(dp1985
g1135
g1009
sg1137
g1147
sg335
g1034
sbsS'iwutil.config.txt'
p1986
g309
(g1131
g311
Ntp1987
Rp1988
(dp1989
g1135
g1009
sg1137
g1147
sg335
g1044
sbsS'deque'
p1990
g309
(g1131
g311
Ntp1991
Rp1992
(dp1993
g1135
g1136
sg1137
g1138
sg335
S'c:/marmalade/7.5/s3e/h/std/c++/deque'
p1994
sbsS'IwString.h'
p1995
g309
(g1131
g311
Ntp1996
Rp1997
(dp1998
g1135
g1009
sg1137
g1147
sg335
g1083
sbsS's3eCrypto.h'
p1999
g309
(g1131
g311
Ntp2000
Rp2001
(dp2002
g1135
g1136
sg1137
g1183
sg335
S'c:/marmalade/7.5/s3e/h/s3eCrypto.h'
p2003
sbsS'zlib.h'
p2004
g309
(g1131
g311
Ntp2005
Rp2006
(dp2007
g1135
g1114
sg1137
g1509
sg335
g1115
sbsS's3eSMS.h'
p2008
g309
(g1131
g311
Ntp2009
Rp2010
(dp2011
g1135
g1136
sg1137
g1299
sg335
S'c:/marmalade/7.5/s3e/h/ext/s3eSMS.h'
p2012
sbsS'cctype'
p2013
g309
(g1131
g311
Ntp2014
Rp2015
(dp2016
g1135
g1136
sg1137
g1138
sg335
S'c:/marmalade/7.5/s3e/h/std/c++/cctype'
p2017
sbsS'limits.h'
p2018
g309
(g1131
g311
Ntp2019
Rp2020
(dp2021
g1135
g1136
sg1137
g1161
sg335
S'c:/marmalade/7.5/s3e/h/std/limits.h'
p2022
sbsS'stdexcept'
p2023
g309
(g1131
g311
Ntp2024
Rp2025
(dp2026
g1135
g1136
sg1137
g1138
sg335
S'c:/marmalade/7.5/s3e/h/std/c++/stdexcept'
p2027
sbsS'fcntl.h'
p2028
g309
(g1131
g311
Ntp2029
Rp2030
(dp2031
g1135
g1136
sg1137
g1161
sg335
S'c:/marmalade/7.5/s3e/h/std/fcntl.h'
p2032
sbsS'sigcontext.h'
p2033
g309
(g1131
g311
Ntp2034
Rp2035
(dp2036
g1135
g1136
sg1137
g1161
sg335
S'c:/marmalade/7.5/s3e/h/std/sigcontext.h'
p2037
sbsS'iwutil.mkf'
p2038
g309
(g1131
g311
Ntp2039
Rp2040
(dp2041
g1135
g1080
sg1137
g1147
sg335
g1078
sbsS'csignal'
p2042
g309
(g1131
g311
Ntp2043
Rp2044
(dp2045
g1135
g1136
sg1137
g1138
sg335
S'c:/marmalade/7.5/s3e/h/std/c++/csignal'
p2046
sbsS'ostream.h'
p2047
g309
(g1131
g311
Ntp2048
Rp2049
(dp2050
g1135
g1136
sg1137
g1138
sg335
S'c:/marmalade/7.5/s3e/h/std/c++/ostream.h'
p2051
sbsS'types.h'
p2052
g309
(g1131
g311
Ntp2053
Rp2054
(dp2055
g1135
g1136
sg1137
g1325
sg335
S'c:/marmalade/7.5/s3e/h/std/sys/types.h'
p2056
sbsS'pthread_types.h'
p2057
g309
(g1131
g311
Ntp2058
Rp2059
(dp2060
g1135
g1136
sg1137
g1161
sg335
S'c:/marmalade/7.5/s3e/h/std/pthread_types.h'
p2061
sbsS'ifaddrs.h'
p2062
g309
(g1131
g311
Ntp2063
Rp2064
(dp2065
g1135
g1136
sg1137
g1161
sg335
S'c:/marmalade/7.5/s3e/h/std/ifaddrs.h'
p2066
sbsS'memory.h'
p2067
g309
(g1131
g311
Ntp2068
Rp2069
(dp2070
g1135
g1136
sg1137
g1161
sg335
S'c:/marmalade/7.5/s3e/h/std/memory.h'
p2071
sbsS'gl.h'
p2072
g309
(g1131
g311
Ntp2073
Rp2074
(dp2075
g1135
g1136
sg1137
g1679
sg335
S'c:/marmalade/7.5/s3e/h/GLES/gl.h'
p2076
sbsS'getopt.h'
p2077
g309
(g1131
g311
Ntp2078
Rp2079
(dp2080
g1135
g1136
sg1137
g1161
sg335
S'c:/marmalade/7.5/s3e/h/std/getopt.h'
p2081
sbsS'cmath'
p2082
g309
(g1131
g311
Ntp2083
Rp2084
(dp2085
g1135
g1136
sg1137
g1138
sg335
S'c:/marmalade/7.5/s3e/h/std/c++/cmath'
p2086
sbsS'strstream'
p2087
g309
(g1131
g311
Ntp2088
Rp2089
(dp2090
g1135
g1136
sg1137
g1138
sg335
S'c:/marmalade/7.5/s3e/h/std/c++/strstream'
p2091
sbsS'IwOptimiseARM.h'
p2092
g309
(g1131
g311
Ntp2093
Rp2094
(dp2095
g1135
g1009
sg1137
g1147
sg335
g1056
sbsS'times.h'
p2096
g309
(g1131
g311
Ntp2097
Rp2098
(dp2099
g1135
g1136
sg1137
g1325
sg335
S'c:/marmalade/7.5/s3e/h/std/sys/times.h'
p2100
sbsS'exception'
p2101
g309
(g1131
g311
Ntp2102
Rp2103
(dp2104
g1135
g1136
sg1137
g1138
sg335
S'c:/marmalade/7.5/s3e/h/std/c++/exception'
p2105
sbsS'pthread.h'
p2106
g309
(g1131
g311
Ntp2107
Rp2108
(dp2109
g1135
g1136
sg1137
g1161
sg335
S'c:/marmalade/7.5/s3e/h/std/pthread.h'
p2110
sbsS'IwTextParserITX.h'
p2111
g309
(g1131
g311
Ntp2112
Rp2113
(dp2114
g1135
g1009
sg1137
g1147
sg335
g1050
sbsS'rlocks.h'
p2115
g309
(g1131
g311
Ntp2116
Rp2117
(dp2118
g1135
g1136
sg1137
g1138
sg335
S'c:/marmalade/7.5/s3e/h/std/c++/rlocks.h'
p2119
sbsS'functional'
p2120
g309
(g1131
g311
Ntp2121
Rp2122
(dp2123
g1135
g1136
sg1137
g1138
sg335
S'c:/marmalade/7.5/s3e/h/std/c++/functional'
p2124
sbsS'ioctl.h'
p2125
g309
(g1131
g311
Ntp2126
Rp2127
(dp2128
g1135
g1136
sg1137
g1325
sg335
S'c:/marmalade/7.5/s3e/h/std/sys/ioctl.h'
p2129
sbsS'rope'
p2130
g309
(g1131
g311
Ntp2131
Rp2132
(dp2133
g1135
g1136
sg1137
g1138
sg335
S'c:/marmalade/7.5/s3e/h/std/c++/rope'
p2134
sbsS's3eAndroidJNI.h'
p2135
g309
(g1131
g311
Ntp2136
Rp2137
(dp2138
g1135
g1136
sg1137
g1299
sg335
S'c:/marmalade/7.5/s3e/h/ext/s3eAndroidJNI.h'
p2139
sbsS'jinclude.h'
p2140
g309
(g1131
g311
Ntp2141
Rp2142
(dp2143
g1135
g976
sg1137
g1284
sg335
g983
sbsS'IwEvent.h'
p2144
g309
(g1131
g311
Ntp2145
Rp2146
(dp2147
g1135
g1009
sg1137
g1147
sg335
g1093
sbsS'IwTypes.h'
p2148
g309
(g1131
g311
Ntp2149
Rp2150
(dp2151
g1135
g1009
sg1137
g1147
sg335
g1101
sbsS's3eSocket.h'
p2152
g309
(g1131
g311
Ntp2153
Rp2154
(dp2155
g1135
g1136
sg1137
g1183
sg335
S'c:/marmalade/7.5/s3e/h/s3eSocket.h'
p2156
sbsS'IwOptimiseSize.h'
p2157
g309
(g1131
g311
Ntp2158
Rp2159
(dp2160
g1135
g1009
sg1137
g1147
sg335
g1060
sbsS'IwAutoFile.h'
p2161
g309
(g1131
g311
Ntp2162
Rp2163
(dp2164
g1135
g1009
sg1137
g1147
sg335
g1070
sbsS'iconv.h'
p2165
g309
(g1131
g311
Ntp2166
Rp2167
(dp2168
g1135
g1136
sg1137
g1161
sg335
S'c:/marmalade/7.5/s3e/h/std/iconv.h'
p2169
sbsS'ipc.h'
p2170
g309
(g1131
g311
Ntp2171
Rp2172
(dp2173
g1135
g1136
sg1137
g1325
sg335
S'c:/marmalade/7.5/s3e/h/std/sys/ipc.h'
p2174
sbsS's3eDevice.h'
p2175
g309
(g1131
g311
Ntp2176
Rp2177
(dp2178
g1135
g1136
sg1137
g1183
sg335
S'c:/marmalade/7.5/s3e/h/s3eDevice.h'
p2179
sbsS'poll_1.h'
p2180
g309
(g1131
g311
Ntp2181
Rp2182
(dp2183
g1135
g1136
sg1137
g1325
sg335
S'c:/marmalade/7.5/s3e/h/std/sys/poll.h'
p2184
sbsS's3eThread.h'
p2185
g309
(g1131
g311
Ntp2186
Rp2187
(dp2188
g1135
g1136
sg1137
g1183
sg335
S'c:/marmalade/7.5/s3e/h/s3eThread.h'
p2189
sbsS'stl_user_config.h'
p2190
g309
(g1131
g311
Ntp2191
Rp2192
(dp2193
g1135
g1136
sg1137
g1138
sg335
S'c:/marmalade/7.5/s3e/h/std/c++/stl_user_config.h'
p2194
sbsS'IwList.h'
p2195
g309
(g1131
g311
Ntp2196
Rp2197
(dp2198
g1135
g1009
sg1137
g1147
sg335
g1068
sbsS'langinfo.h'
p2199
g309
(g1131
g311
Ntp2200
Rp2201
(dp2202
g1135
g1136
sg1137
g1161
sg335
S'c:/marmalade/7.5/s3e/h/std/langinfo.h'
p2203
sbsS's3edebugHeap.h'
p2204
g309
(g1131
g311
Ntp2205
Rp2206
(dp2207
g1135
g1136
sg1137
g1299
sg335
S'c:/marmalade/7.5/s3e/h/ext/s3edebugHeap.h'
p2208
sbsS'jdct.h'
p2209
g309
(g1131
g311
Ntp2210
Rp2211
(dp2212
g1135
g976
sg1137
g1284
sg335
g987
sbsS'AirplayVersion.h'
p2213
g309
(g1131
g311
Ntp2214
Rp2215
(dp2216
g1135
g1136
sg1137
g1183
sg335
S'c:/marmalade/7.5/s3e/h/AirplayVersion.h'
p2217
sbsS'jchuff.h'
p2218
g309
(g1131
g311
Ntp2219
Rp2220
(dp2221
g1135
g976
sg1137
g1284
sg335
g993
sbsS'IwProfileMenu.h'
p2222
g309
(g1131
g311
Ntp2223
Rp2224
(dp2225
g1135
g1009
sg1137
g1147
sg335
g1089
sbsS's3eSoundRecord.h'
p2226
g309
(g1131
g311
Ntp2227
Rp2228
(dp2229
g1135
g1136
sg1137
g1183
sg335
S'c:/marmalade/7.5/s3e/h/s3eSoundRecord.h'
p2230
sbsS'gl2extimg.h'
p2231
g309
(g1131
g311
Ntp2232
Rp2233
(dp2234
g1135
g1136
sg1137
g1400
sg335
S'c:/marmalade/7.5/s3e/h/GLES2/gl2extimg.h'
p2235
sbsS'IwFibre.h'
p2236
g309
(g1131
g311
Ntp2237
Rp2238
(dp2239
g1135
g1009
sg1137
g1147
sg335
g1024
sbsS's3eConfig.h'
p2240
g309
(g1131
g311
Ntp2241
Rp2242
(dp2243
g1135
g1136
sg1137
g1183
sg335
S'c:/marmalade/7.5/s3e/h/s3eConfig.h'
p2244
sbsS'IwHashString.h'
p2245
g309
(g1131
g311
Ntp2246
Rp2247
(dp2248
g1135
g1009
sg1137
g1147
sg335
g1074
sbsS'stat.h'
p2249
g309
(g1131
g311
Ntp2250
Rp2251
(dp2252
g1135
g1136
sg1137
g1325
sg335
S'c:/marmalade/7.5/s3e/h/std/sys/stat.h'
p2253
sbsS's3eVersion.h'
p2254
g309
(g1131
g311
Ntp2255
Rp2256
(dp2257
g1135
g1136
sg1137
g1183
sg335
S'c:/marmalade/7.5/s3e/h/s3eVersion.h'
p2258
sbsS'MarmaladeVersion.h'
p2259
g309
(g1131
g311
Ntp2260
Rp2261
(dp2262
g1135
g1136
sg1137
g1183
sg335
S'c:/marmalade/7.5/s3e/h/MarmaladeVersion.h'
p2263
sbsS'utility'
p2264
g309
(g1131
g311
Ntp2265
Rp2266
(dp2267
g1135
g1136
sg1137
g1138
sg335
S'c:/marmalade/7.5/s3e/h/std/c++/utility'
p2268
sbsS'syslog.h'
p2269
g309
(g1131
g311
Ntp2270
Rp2271
(dp2272
g1135
g1136
sg1137
g1161
sg335
S'c:/marmalade/7.5/s3e/h/std/syslog.h'
p2273
sbsS'IwUtilInitTerm.h'
p2274
g309
(g1131
g311
Ntp2275
Rp2276
(dp2277
g1135
g1009
sg1137
g1147
sg335
g1103
sbsS'byteswap.h'
p2278
g309
(g1131
g311
Ntp2279
Rp2280
(dp2281
g1135
g1136
sg1137
g1161
sg335
S'c:/marmalade/7.5/s3e/h/std/byteswap.h'
p2282
sbsS'ios.h'
p2283
g309
(g1131
g311
Ntp2284
Rp2285
(dp2286
g1135
g1136
sg1137
g1138
sg335
S'c:/marmalade/7.5/s3e/h/std/c++/ios.h'
p2287
sbsS'bitset'
p2288
g309
(g1131
g311
Ntp2289
Rp2290
(dp2291
g1135
g1136
sg1137
g1138
sg335
S'c:/marmalade/7.5/s3e/h/std/c++/bitset'
p2292
sbsS'IwImageHelper.h'
p2293
g309
(g1131
g311
Ntp2294
Rp2295
(dp2296
g1135
g1009
sg1137
g1147
sg335
g1020
sbsS's3eKeyboard.h'
p2297
g309
(g1131
g311
Ntp2298
Rp2299
(dp2300
g1135
g1136
sg1137
g1183
sg335
S'c:/marmalade/7.5/s3e/h/s3eKeyboard.h'
p2301
sbsS'pthread_1.h'
p2302
g309
(g1131
g311
Ntp2303
Rp2304
(dp2305
g1135
g1136
sg1137
g1138
sg335
S'c:/marmalade/7.5/s3e/h/std/c++/pthread.h'
p2306
sbsS'IwMemBucket.h'
p2307
g309
(g1131
g311
Ntp2308
Rp2309
(dp2310
g1135
g1009
sg1137
g1147
sg335
g1058
sbsS's3e.mkf'
p2311
g309
(g1131
g311
Ntp2312
Rp2313
(dp2314
g1135
(dp2315
sg1137
g1183
sg335
S'c:/marmalade/7.5/s3e/s3e.mkf'
p2316
sbsS'hash_set'
p2317
g309
(g1131
g311
Ntp2318
Rp2319
(dp2320
g1135
g1136
sg1137
g1138
sg335
S'c:/marmalade/7.5/s3e/h/std/c++/hash_set'
p2321
sbsS's3eTypes.h'
p2322
g309
(g1131
g311
Ntp2323
Rp2324
(dp2325
g1135
g1136
sg1137
g1183
sg335
S'c:/marmalade/7.5/s3e/h/s3eTypes.h'
p2326
sbsS'complex'
p2327
g309
(g1131
g311
Ntp2328
Rp2329
(dp2330
g1135
g1136
sg1137
g1138
sg335
S'c:/marmalade/7.5/s3e/h/std/c++/complex'
p2331
sbsS'jmorecfg.h'
p2332
g309
(g1131
g311
Ntp2333
Rp2334
(dp2335
g1135
g976
sg1137
g1284
sg335
g985
sbsS'eglplatform.h'
p2336
g309
(g1131
g311
Ntp2337
Rp2338
(dp2339
g1135
g1136
sg1137
g1797
sg335
S'c:/marmalade/7.5/s3e/h/EGL/eglplatform.h'
p2340
sbsS'signal_2.h'
p2341
g309
(g1131
g311
Ntp2342
Rp2343
(dp2344
g1135
g1136
sg1137
g1138
sg335
S'c:/marmalade/7.5/s3e/h/std/c++/signal.h'
p2345
sbsS'stdbool.h'
p2346
g309
(g1131
g311
Ntp2347
Rp2348
(dp2349
g1135
g1136
sg1137
g1161
sg335
S'c:/marmalade/7.5/s3e/h/std/stdbool.h'
p2350
sbsS's3e.icf'
p2351
g309
(g1131
g311
Ntp2352
Rp2353
(dp2354
g1135
g1136
sg1137
g1183
sg335
S'c:/marmalade/7.5/s3e/s3e.icf'
p2355
sbsS'math_gcc.h'
p2356
g309
(g1131
g311
Ntp2357
Rp2358
(dp2359
g1135
g1136
sg1137
g1161
sg335
S'c:/marmalade/7.5/s3e/h/std/math_gcc.h'
p2360
sbsS's3eMemory.h'
p2361
g309
(g1131
g311
Ntp2362
Rp2363
(dp2364
g1135
g1136
sg1137
g1183
sg335
S'c:/marmalade/7.5/s3e/h/s3eMemory.h'
p2365
sbsS'map'
p2366
g309
(g1131
g311
Ntp2367
Rp2368
(dp2369
g1135
g1136
sg1137
g1138
sg335
S'c:/marmalade/7.5/s3e/h/std/c++/map'
p2370
sbsS'sem.h'
p2371
g309
(g1131
g311
Ntp2372
Rp2373
(dp2374
g1135
g1136
sg1137
g1325
sg335
S'c:/marmalade/7.5/s3e/h/std/sys/sem.h'
p2375
sbsS'IwOptimiseSpeed.h'
p2376
g309
(g1131
g311
Ntp2377
Rp2378
(dp2379
g1135
g1009
sg1137
g1147
sg335
g1066
sbsS's3eLicense.h'
p2380
g309
(g1131
g311
Ntp2381
Rp2382
(dp2383
g1135
g1136
sg1137
g1183
sg335
S'c:/marmalade/7.5/s3e/h/s3eLicense.h'
p2384
sbsS'stdio.h'
p2385
g309
(g1131
g311
Ntp2386
Rp2387
(dp2388
g1135
g1136
sg1137
g1161
sg335
S'c:/marmalade/7.5/s3e/h/std/stdio.h'
p2389
sbsS's3eFile.h'
p2390
g309
(g1131
g311
Ntp2391
Rp2392
(dp2393
g1135
g1136
sg1137
g1183
sg335
S'c:/marmalade/7.5/s3e/h/s3eFile.h'
p2394
sbsS'jmemsys.h'
p2395
g309
(g1131
g311
Ntp2396
Rp2397
(dp2398
g1135
g976
sg1137
g1284
sg335
g989
sbsS'ios'
p2399
g309
(g1131
g311
Ntp2400
Rp2401
(dp2402
g1135
g1136
sg1137
g1138
sg335
S'c:/marmalade/7.5/s3e/h/std/c++/ios'
p2403
sbsS'gl3platform.h'
p2404
g309
(g1131
g311
Ntp2405
Rp2406
(dp2407
g1135
g1136
sg1137
g1632
sg335
S'c:/marmalade/7.5/s3e/h/GLES3/gl3platform.h'
p2408
sbsS'msl_string.h'
p2409
g309
(g1131
g311
Ntp2410
Rp2411
(dp2412
g1135
g1136
sg1137
g1138
sg335
S'c:/marmalade/7.5/s3e/h/std/c++/msl_string.h'
p2413
sbsS'select.h'
p2414
g309
(g1131
g311
Ntp2415
Rp2416
(dp2417
g1135
g1136
sg1137
g1325
sg335
S'c:/marmalade/7.5/s3e/h/std/sys/select.h'
p2418
sbsS'cerrno'
p2419
g309
(g1131
g311
Ntp2420
Rp2421
(dp2422
g1135
g1136
sg1137
g1138
sg335
S'c:/marmalade/7.5/s3e/h/std/c++/cerrno'
p2423
sbsS'slist'
p2424
g309
(g1131
g311
Ntp2425
Rp2426
(dp2427
g1135
g1136
sg1137
g1138
sg335
S'c:/marmalade/7.5/s3e/h/std/c++/slist'
p2428
sbsS'cstdlib'
p2429
g309
(g1131
g311
Ntp2430
Rp2431
(dp2432
g1135
g1136
sg1137
g1138
sg335
S'c:/marmalade/7.5/s3e/h/std/c++/cstdlib'
p2433
sbsS's3eLocation.h'
p2434
g309
(g1131
g311
Ntp2435
Rp2436
(dp2437
g1135
g1136
sg1137
g1183
sg335
S'c:/marmalade/7.5/s3e/h/s3eLocation.h'
p2438
sbsS'zlib.mkf'
p2439
g309
(g1131
g311
Ntp2440
Rp2441
(dp2442
g1135
g1119
sg1137
(lp2443
g1109
asg335
g1117
sbsS'resource.h'
p2444
g309
(g1131
g311
Ntp2445
Rp2446
(dp2447
g1135
g1136
sg1137
g1325
sg335
S'c:/marmalade/7.5/s3e/h/std/sys/resource.h'
p2448
sbsS'pwd.h'
p2449
g309
(g1131
g311
Ntp2450
Rp2451
(dp2452
g1135
g1136
sg1137
g1161
sg335
S'c:/marmalade/7.5/s3e/h/std/pwd.h'
p2453
sbsS'signal.h'
p2454
g309
(g1131
g311
Ntp2455
Rp2456
(dp2457
g1135
g1136
sg1137
g1161
sg335
S'c:/marmalade/7.5/s3e/h/std/signal.h'
p2458
sbsS'csetjmp'
p2459
g309
(g1131
g311
Ntp2460
Rp2461
(dp2462
g1135
g1136
sg1137
g1138
sg335
S'c:/marmalade/7.5/s3e/h/std/c++/csetjmp'
p2463
sbsS's3eLibrary.h'
p2464
g309
(g1131
g311
Ntp2465
Rp2466
(dp2467
g1135
g1136
sg1137
g1299
sg335
S'c:/marmalade/7.5/s3e/h/ext/s3eLibrary.h'
p2468
sbsS'libpng.mkf'
p2469
g309
(g1131
g311
Ntp2470
Rp2471
(dp2472
g1135
g967
sg1137
(lp2473
g956
asg335
g965
sbsS'IwMemBucketHelpers.h'
p2474
g309
(g1131
g311
Ntp2475
Rp2476
(dp2477
g1135
g1009
sg1137
g1147
sg335
g1048
sbsS's3eHash.h'
p2478
g309
(g1131
g311
Ntp2479
Rp2480
(dp2481
g1135
g1136
sg1137
g1183
sg335
S'c:/marmalade/7.5/s3e/h/s3eHash.h'
p2482
sbsS'new.h'
p2483
g309
(g1131
g311
Ntp2484
Rp2485
(dp2486
g1135
g1136
sg1137
g1138
sg335
S'c:/marmalade/7.5/s3e/h/std/c++/new.h'
p2487
sbsS'math.h'
p2488
g309
(g1131
g311
Ntp2489
Rp2490
(dp2491
g1135
g1136
sg1137
g1161
sg335
S'c:/marmalade/7.5/s3e/h/std/math.h'
p2492
sbsS's3eClipboard.h'
p2493
g309
(g1131
g311
Ntp2494
Rp2495
(dp2496
g1135
g1136
sg1137
g1183
sg335
S'c:/marmalade/7.5/s3e/h/s3eClipboard.h'
p2497
sbsS'streambuf'
p2498
g309
(g1131
g311
Ntp2499
Rp2500
(dp2501
g1135
g1136
sg1137
g1138
sg335
S'c:/marmalade/7.5/s3e/h/std/c++/streambuf'
p2502
sbsS's3eDebug.h'
p2503
g309
(g1131
g311
Ntp2504
Rp2505
(dp2506
g1135
g1136
sg1137
g1183
sg335
S'c:/marmalade/7.5/s3e/h/s3eDebug.h'
p2507
sbsS's3eEMail.h'
p2508
g309
(g1131
g311
Ntp2509
Rp2510
(dp2511
g1135
g1136
sg1137
g1299
sg335
S'c:/marmalade/7.5/s3e/h/ext/s3eEMail.h'
p2512
sbsS'uio.h'
p2513
g309
(g1131
g311
Ntp2514
Rp2515
(dp2516
g1135
g1136
sg1137
g1325
sg335
S'c:/marmalade/7.5/s3e/h/std/sys/uio.h'
p2517
sbsS'glext.h'
p2518
g309
(g1131
g311
Ntp2519
Rp2520
(dp2521
g1135
g1136
sg1137
g1679
sg335
S'c:/marmalade/7.5/s3e/h/GLES/glext.h'
p2522
sbsS's3eVideo.h'
p2523
g309
(g1131
g311
Ntp2524
Rp2525
(dp2526
g1135
g1136
sg1137
g1183
sg335
S'c:/marmalade/7.5/s3e/h/s3eVideo.h'
p2527
sbsS'pngconf.h'
p2528
g309
(g1131
g311
Ntp2529
Rp2530
(dp2531
g1135
g962
sg1137
g1674
sg335
g963
sbsS'IwUncopyable.h'
p2532
g309
(g1131
g311
Ntp2533
Rp2534
(dp2535
g1135
g1009
sg1137
g1147
sg335
g1087
sbsS'gl3.h'
p2536
g309
(g1131
g311
Ntp2537
Rp2538
(dp2539
g1135
g1136
sg1137
g1632
sg335
S'c:/marmalade/7.5/s3e/h/GLES3/gl3.h'
p2540
sbsS'typeinfo.h'
p2541
g309
(g1131
g311
Ntp2542
Rp2543
(dp2544
g1135
g1136
sg1137
g1138
sg335
S'c:/marmalade/7.5/s3e/h/std/c++/typeinfo.h'
p2545
sbsS's3eAtomic.h'
p2546
g309
(g1131
g311
Ntp2547
Rp2548
(dp2549
g1135
g1136
sg1137
g1183
sg335
S'c:/marmalade/7.5/s3e/h/s3eAtomic.h'
p2550
sbsS'temp_defines_release.h'
p2551
g309
(g1131
g311
Ntp2552
Rp2553
(dp2554
g1135
(lp2555
sg1137
(lp2556
g1903
asg335
S'c:/Users/blogs_000/Documents/Visual Studio 2012/Projects/SDL/SDL/Blaster/build_blaster_vc11/temp_defines_release.h'
p2557
sbsS'IwMenu.h'
p2558
g309
(g1131
g311
Ntp2559
Rp2560
(dp2561
g1135
g1009
sg1137
g1147
sg335
g1095
sbssS'juice_build_type'
p2562
g4
sS'tests'
p2563
(lp2564
sS'project_name'
p2565
g317
sS'root_file'
p2566
g130
sS'current_root'
p2567
S'c:/Users/blogs_000/Documents/Visual Studio 2012/Projects/SDL/SDL/Blaster'
p2568
sS'dependencies'
p2569
(lp2570
sS'include_paths'
p2571
(lp2572
S'c:/marmalade/7.5/modules/iwutil/h'
p2573
aS'c:/marmalade/7.5/modules/third_party/libjpeg/h'
p2574
aS'c:/marmalade/7.5/modules/third_party/zlib/h'
p2575
aS'c:/marmalade/7.5/modules/third_party/libpng/h'
p2576
aS'c:/marmalade/7.5/s3e/h'
p2577
aS'c:/marmalade/7.5/s3e/h/ext'
p2578
aS'c:/marmalade/7.5/s3e/h/std'
p2579
aS'c:/marmalade/7.5/s3e/h/std/c++'
p2580
aS'c:/marmalade/7.5/s3e/h/ext_legacy'
p2581
aS'c:/marmalade/7.5/s3e/h/legacy'
p2582
asS'weak_frameworks'
p2583
(lp2584
sS'extprojects'
p2585
(dp2586
sg481
(dp2587
g475
(lp2588
(g86
S'.'
p2589
I0
tp2590
assS'macro_types'
p2591
(dp2592
g444
I1
sg445
I0
sg446
I0
sg447
I0
sg448
I0
sg449
I0
sg450
I0
sg451
I1
sg452
I0
sg453
I0
sg455
I0
sg456
I0
sg457
I0
sg458
I0
sg460
I01
sg461
I1
sg462
I0
sg463
I0
ssS'commands'
p2593
(lp2594
sg483
(g949
S'VC11'
p2595
S'X86ARMAARCH64'
p2596
tp2597
sS'build_libs'
p2598
(dp2599
sg485
g0
sS'frameworks'
p2600
(lp2601
sS'environ'
p2602
(dp2603
sS'target_name_debug'
p2604
g317
sS'builders'
p2605
(dp2606
g475
(dp2607
S'.S'
p2608
(dp2609
S'gcc_aarch64'
p2610
(lp2611
S'.obj'
p2612
aS'echo AARCH64 Assembling(GCC) ${SOURCE}...'
p2613
aS'c:/marmalade/7.5/s3e\\gcc\\win32\\aarch64\\bin\\aarch64-none-elf-gcc -c -o ${TARGET} ${SOURCE}'
p2614
asS'rvct'
p2615
(lp2616
g2612
aS'echo ARM Assembling(RVCT) ${SOURCE}...'
p2617
aS'c:/marmalade/7.5/s3e\\rvct\\bin\\armasm -o ${TARGET} ${SOURCE}'
p2618
asg399
(lp2619
g2612
aS'echo ARM Assembling(GCC) ${SOURCE}...'
p2620
aS'c:/marmalade/7.5/s3e\\gcc\\win32\\arm\\bin\\arm-none-eabi-gcc -c -o ${TARGET} ${SOURCE}'
p2621
asS'ppu'
p2622
(lp2623
S'.a'
p2624
aS'echo PPU Assembling(SNC) ${SOURCE}...'
p2625
aS'c:/marmalade/7.5/s3e\\rvct\\bin\\armasm -o ${TARGET} ${SOURCE}'
p2626
assS'.s'
p2627
g2609
sssS'extproject_names'
p2628
(lp2629
sbtp2630
.