(dp0
S'IW_MKF_S3E_DEFAULT'
p1
NsS'IW_USE_CALLSTACK'
p2
NsS'IW_PLATFORM_S3E'
p3
NsS'I3D_PLATFORM_S3E'
p4
NsS'IW_MKF_IWUTIL'
p5
NsS'S3E_INCLUDE_LEGACY'
p6
NsS'IW_SDK'
p7
NsS'__S3E__'
p8
NsS'IW_USE_ASSERTIONS'
p9
NsS'_CRT_SECURE_NO_DEPRECATE'
p10
NsS'IW_APP_NAME'
p11
S'"Blaster"'
p12
sS'IW_MKF_LIBJPEG'
p13
NsS'I3D_OS_S3E'
p14
NsS'IW_APP_VERSION'
p15
S'"1.0"'
p16
sS'IW_DEBUG'
p17
NsS'IW_USE_TRACING'
p18
NsS'IW_MKF_ZLIB'
p19
NsS'IW_MKF_LIBPNG'
p20
Ns.